(lp1
(lp2
S'-3015'
p3
aS'DB04839'
p4
aS'""'
p5
aS'cyproterone'
p6
aS'O=C1C=C2C(=C[C@@H]3[C@@H]([C@]2([C@@H]2[C@H]1C2)C)CC[C@]1([C@H]3CC[C@]1(O)C(=O)C)C)Cl'
p7
aa(lp8
S'-4011'
p9
aS'DB00934'
p10
aS'D02566'
p11
aS'maprotiline'
p12
aS'CNCCCC12CCC(c3c1cccc3)c1c2cccc1'
p13
aa(lp14
S'-71273'
p15
aS'DB00296'
p16
aS'""'
p17
aS'ropivacaine'
p18
aS'CCCN1CCCC[C@H]1C(=O)Nc1c(C)cccc1C'
p19
aa(lp20
S'-62816'
p21
aS'DB00375'
p22
aS'""'
p23
aS'colestipol'
p24
aS'ClCC1OC1.NCCNCCNCCNCCN'
p25
aa(lp26
S'-52421'
p27
aS'DB01130'
p28
aS'""'
p29
aS'prednicarbate'
p30
aS'CCOC(=O)OC1(CCC2C1(C)CC(O)C1C2CCC2=CC(=O)C=CC12C)C(=O)COC(=O)CC'
p31
aa(lp32
S'-56339'
p33
aS'DB01320'
p34
aS'""'
p35
aS'fosphenytoin'
p36
aS'O=C1N(COP(=O)(O)O)C(=O)NC1(c1ccccc1)c1ccccc1'
p37
aa(lp38
S'-77992'
p39
aS'DB00998'
p40
aS'""'
p41
aS'frovatriptan'
p42
aS'CN[C@H]1Cc2c(CC1)[nH]c1c2cc(cc1)C(=O)N'
p43
aa(lp44
S'-5300'
p45
aS'DB00428'
p46
aS'D05932'
p47
aS'Streptozocin'
p48
aS'OC[C@H]1O[C@H](O)[C@@H]([C@H]([C@@H]1O)O)NC(=O)N(N=O)C'
p49
aa(lp50
S'-222786'
p51
aS'DB01380'
p52
aS'D00973'
p53
aS'Cortisone acetate'
p54
aS'CC(=O)OCC(=O)[C@@]1(O)CC[C@@H]2[C@]1(C)CC(=O)[C@H]1[C@H]2CCC2=CC(=O)CC[C@]12C'
p55
aa(lp56
S'-71301'
p57
aS'DB04861'
p58
aS'D05127'
p59
aS'nebivolol'
p60
aS'OC(C1CCc2c(O1)ccc(c2)F)CNCC(C1CCc2c(O1)ccc(c2)F)O'
p61
aa(lp62
S'-4870'
p63
aS'DB01324'
p64
aS'D00657'
p65
aS'polythiazide'
p66
aS'CN1C(CSCC(F)(F)F)Nc2c(S1(=O)=O)cc(c(c2)Cl)S(=O)(=O)N'
p67
aa(lp68
S'-4873'
p69
aS'DB00761'
p70
aS'D02060'
p71
aS'Potassium Chloride'
p72
aS'Cl.[K+]'
p73
aa(lp74
S'-2142'
p75
aS'DB00479'
p76
aS'D02543'
p77
aS'amikacin'
p78
aS'NCC[C@@H](C(=O)N[C@@H]1C[C@H](N)[C@H]([C@@H]([C@H]1O[C@H]1O[C@H](CO)[C@H]([C@@H]([C@H]1O)N)O)O)O[C@H]1O[C@H](CN)[C@H]([C@@H]([C@H]1O)O)O)O'
p79
aa(lp80
S'-2141'
p81
aS'DB01143'
p82
aS'""'
p83
aS'amifostine'
p84
aS'NCCCNCCSP(=O)(O)O'
p85
aa(lp86
S'-131536'
p87
aS'DB01319'
p88
aS'""'
p89
aS'fosamprenavir'
p90
aS'CC(CN(S(=O)(=O)c1ccc(cc1)N)C[C@H]([C@H](Cc1ccccc1)NC(=O)O[C@H]1CCOC1)OP(=O)(O)O)C'
p91
aa(lp92
S'-1775'
p93
aS'DB00252'
p94
aS'D00512'
p95
aS'phenytoin'
p96
aS'O=C1NC(=O)NC1(c1ccccc1)c1ccccc1'
p97
aa(lp98
S'-3305'
p99
aS'DB01077'
p100
aS'D00314'
p101
aS'Etidronic acid'
p102
aS'CC(P(=O)(O)O)(P(=O)(O)O)O'
p103
aa(lp104
S'-5454'
p105
aS'DB01623'
p106
aS'""'
p107
aS'thiothixene'
p108
aS'CN1CCN(CC1)CC/C=C\\1/c2ccccc2Sc2c1cc(cc2)S(=O)(=O)N(C)C'
p109
aa(lp110
S'-3308'
p111
aS'DB00749'
p112
aS'D00315'
p113
aS'etodolac'
p114
aS'CCC1(OCCc2c1[nH]c1c2cccc1CC)CC(=O)O'
p115
aa(lp116
S'-4909'
p117
aS'DB00794'
p118
aS'D00474'
p119
aS'primidone'
p120
aS'CCC1(C(=O)NCNC1=O)c1ccccc1'
p121
aa(lp122
S'-4908'
p123
aS'DB01087'
p124
aS'""'
p125
aS'primaquine'
p126
aS'NCCCC(Nc1cc(OC)cc2c1nccc2)C'
p127
aa(lp128
S'-2099'
p129
aS'DB00969'
p130
aS'""'
p131
aS'alosetron'
p132
aS'O=C1N(CCc2c1c1ccccc1n2C)Cc1nc[nH]c1C'
p133
aa(lp134
S'-54688'
p135
aS'DB01211'
p136
aS'D00276'
p137
aS'clarithromycin'
p138
aS'CC[C@H]1OC(=O)[C@H](C)[C@@H](O[C@H]2C[C@@](C)(OC)[C@H]([C@@H](O2)C)O)[C@H](C)[C@@H](O[C@@H]2O[C@H](C)C[C@@H]([C@H]2O)N(C)C)[C@](C[C@H](C(=O)[C@@H]([C@H]([C@]1(C)O)O)C)C)(C)OC'
p139
aa(lp140
S'-2092'
p141
aS'DB00346'
p142
aS'D01692'
p143
aS'alfuzosin'
p144
aS'COc1cc2nc(nc(c2cc1OC)N)N(CCCNC(=O)C1CCCO1)C'
p145
aa(lp146
S'-5503'
p147
aS'DB00839'
p148
aS'D00379'
p149
aS'tolazamide'
p150
aS'O=C(NS(=O)(=O)c1ccc(cc1)C)NN1CCCCCC1'
p151
aa(lp152
S'-4536'
p153
aS'DB00717'
p154
aS'D00182'
p155
aS'Norethindrone'
p156
aS'C#C[C@]1(O)CC[C@@H]2[C@]1(C)CC[C@H]1[C@H]2CCC2=CC(=O)CC[C@H]12'
p157
aa(lp158
S'-6918453'
p159
aS'DB00995'
p160
aS'D00237'
p161
aS'auranofin'
p162
aS'CCP(=[Au]S[C@@H]1O[C@H](COC(=O)C)[C@H]([C@@H]([C@H]1OC(=O)C)OC(=O)C)OC(=O)C)(CC)CC'
p163
aa(lp164
S'-3706'
p165
aS'DB00224'
p166
aS'""'
p167
aS'indinavir'
p168
aS'O[C@H](CN1CCN(C[C@H]1C(=O)NC(C)(C)C)Cc1cccnc1)C[C@H](C(=O)N[C@@H]1[C@H](O)Cc2c1cccc2)Cc1ccccc1'
p169
aa(lp170
S'-5408'
p171
aS'DB00624'
p172
aS'D00075'
p173
aS'testosterone'
p174
aS'O=C1CC[C@]2(C(=C1)CC[C@@H]1[C@@H]2CC[C@]2([C@H]1CC[C@@H]2O)C)C'
p175
aa(lp176
S'-4497'
p177
aS'DB00393'
p178
aS'D00438'
p179
aS'nimodipine'
p180
aS'COCCOC(=O)C1=C(C)NC(=C(C1c1cccc(c1)[N+](=O)[O-])C(=O)OC(C)C)C'
p181
aa(lp182
S'-4493'
p183
aS'DB00665'
p184
aS'D00965'
p185
aS'nilutamide'
p186
aS'O=C1NC(C(=O)N1c1ccc(c(c1)C(F)(F)F)[N+](=O)[O-])(C)C'
p187
aa(lp188
S'-3219'
p189
aS'DB01084'
p190
aS'""'
p191
aS'emedastine'
p192
aS'CCOCCn1c(nc2c1cccc2)N1CCCN(CC1)C'
p193
aa(lp194
S'-2435'
p195
aS'DB00484'
p196
aS'D02076'
p197
aS'brimonidine'
p198
aS'Brc1c(ccc2c1nccn2)NC1=NCCN1'
p199
aa(lp200
S'-3121'
p201
aS'DB00313'
p202
aS'D00399'
p203
aS'valproic acid'
p204
aS'CCCC(C(=O)O)CCC'
p205
aa(lp206
S'-40159'
p207
aS'DB04930'
p208
aS'D05443'
p209
aS'permethrin'
p210
aS'ClC(=CC1C(C1(C)C)C(=O)OCc1cccc(c1)Oc1ccccc1)Cl'
p211
aa(lp212
S'-5878'
p213
aS'DB00621'
p214
aS'D00462'
p215
aS'oxandrolone'
p216
aS'O=C1OC[C@]2([C@H](C1)CC[C@@H]1[C@@H]2CC[C@]2([C@H]1CC[C@]2(C)O)C)C'
p217
aa(lp218
S'-2554'
p219
aS'DB00564'
p220
aS'D00252'
p221
aS'carbamazepine'
p222
aS'NC(=O)N1c2ccccc2C=Cc2c1cccc2'
p223
aa(lp224
S'-2550'
p225
aS'DB01197'
p226
aS'D00251'
p227
aS'captopril'
p228
aS'SC[C@H](C(=O)N1CCC[C@H]1C(=O)O)C'
p229
aa(lp230
S'-2551'
p231
aS'DB00411'
p232
aS'D00524'
p233
aS'carbachol'
p234
aS'NC(=O)OCC[N+](C)(C)C.Cl'
p235
aa(lp236
S'-10100'
p237
aS'DB00647'
p238
aS'""'
p239
aS'propoxyphene'
p240
aS'CCC(=O)OC(c1ccccc1)([C@@H](CN(C)C)C)Cc1ccccc1'
p241
aa(lp242
S'-2559'
p243
aS'DB00578'
p244
aS'""'
p245
aS'carbenicillin'
p246
aS'O=C(C(c1ccccc1)C(=O)O)N[C@@H]1C(=O)N2[C@@H]1SC([C@@H]2C(=O)O)(C)C'
p247
aa(lp248
S'-443871'
p249
aS'DB00731'
p250
aS'D01111'
p251
aS'nateglinide'
p252
aS'CC(C1CC[C@H](CC1)C(=O)N[C@@H](C(=O)O)Cc1ccccc1)C'
p253
aa(lp254
S'-3059'
p255
aS'DB00861'
p256
aS'D00130'
p257
aS'diflunisal'
p258
aS'Fc1ccc(c(c1)F)c1ccc(c(c1)C(=O)O)O'
p259
aa(lp260
S'-19090'
p261
aS'DB00351'
p262
aS'""'
p263
aS'megestrol'
p264
aS'O=C1CC[C@]2(C(=C1)C=C[C@@H]1[C@@H]2CC[C@]2([C@H]1CC[C@]2(O)C(=O)C)C)C'
p265
aa(lp266
S'-59768'
p267
aS'DB00187'
p268
aS'""'
p269
aS'esmolol'
p270
aS'COC(=O)CCc1ccc(cc1)OCC(CNC(C)C)O'
p271
aa(lp272
S'-4183806'
p273
aS'DB00929'
p274
aS'D00419'
p275
aS'misoprostol'
p276
aS'CCCCC(C/C=C/[C@H]1[C@H](O)CC(=O)[C@@H]1CCCCCCC(=O)OC)(O)C'
p277
aa(lp278
S'-176870'
p279
aS'DB00530'
p280
aS'""'
p281
aS'erlotinib'
p282
aS'COCCOc1cc2c(ncnc2cc1OCCOC)Nc1cccc(c1)C#C'
p283
aa(lp284
S'-4473'
p285
aS'DB00622'
p286
aS'""'
p287
aS'nicardipine'
p288
aS'COC(=O)C1=C(C)NC(=C(C1c1cccc(c1)[N+](=O)[O-])C(=O)OCCN(Cc1ccccc1)C)C'
p289
aa(lp290
S'-3440'
p291
aS'DB00695'
p292
aS'D00331'
p293
aS'furosemide'
p294
aS'OC(=O)c1cc(c(cc1NCc1ccco1)Cl)S(=O)(=O)N'
p295
aa(lp296
S'-3449'
p297
aS'DB00674'
p298
aS'D04292'
p299
aS'galantamine'
p300
aS'COc1ccc2c3c1O[C@@H]1[C@@]3(CCN(C2)C)C=C[C@@H](C1)O'
p301
aa(lp302
S'-3685'
p303
aS'DB01177'
p304
aS'""'
p305
aS'idarubicin'
p306
aS'O[C@H]1[C@@H](N)C[C@@H](O[C@H]1C)O[C@H]1C[C@@](O)(Cc2c1c(O)c1c(c2O)C(=O)c2c(C1=O)cccc2)C(=O)C'
p307
aa(lp308
S'-3937'
p309
aS'DB00722'
p310
aS'D00362'
p311
aS'lisinopril'
p312
aS'NCCCC[C@@H](C(=O)N1CCC[C@H]1C(=O)O)N[C@H](C(=O)O)CCc1ccccc1'
p313
aa(lp314
S'-4630253'
p315
aS'DB00240'
p316
aS'D01820'
p317
aS'alclometasone'
p318
aS'OCC(=O)[C@@]1(O)[C@H](C)C[C@@H]2[C@]1(C)C[C@H](O)[C@H]1[C@H]2[C@H](Cl)CC2=CC(=O)C=C[C@]12C'
p319
aa(lp320
S'-18140'
p321
aS'DB01196'
p322
aS'D04066'
p323
aS'estramustine'
p324
aS'ClCCN(C(=O)Oc1ccc2c(c1)CC[C@@H]1[C@@H]2CC[C@]2([C@H]1CC[C@@H]2O)C)CCCl'
p325
aa(lp326
S'-727'
p327
aS'DB00431'
p328
aS'D00360'
p329
aS'lindane'
p330
aS'Cl[C@@H]1[C@H](Cl)[C@@H](Cl)[C@@H]([C@@H]([C@H]1Cl)Cl)Cl'
p331
aa(lp332
S'-4475485'
p333
aS'DB01098'
p334
aS'D01915'
p335
aS'rosuvastatin'
p336
aS'O[C@@H](C[C@H](CC(=O)O)O)/C=C/c1c(nc(nc1c1ccc(cc1)F)N(S(=O)(=O)C)C)C(C)C'
p337
aa(lp338
S'-77993'
p339
aS'DB00216'
p340
aS'D01973'
p341
aS'eletriptan'
p342
aS'CN1CCC[C@@H]1Cc1c[nH]c2c1cc(cc2)CCS(=O)(=O)c1ccccc1'
p343
aa(lp344
S'-148211'
p345
aS'DB00377'
p346
aS'""'
p347
aS'palonosetron'
p348
aS'O=C1N(C[C@H]2c3c1cccc3CCC2)[C@@H]1CN2CCC1CC2'
p349
aa(lp350
S'-72938'
p351
aS'DB01155'
p352
aS'D02471'
p353
aS'gemifloxacin'
p354
aS'NCC1CN(C/C/1=N\\OC)c1nc2c(cc1F)c(=O)c(cn2C1CC1)C(=O)O'
p355
aa(lp356
S'-2153'
p357
aS'DB00277'
p358
aS'D00371'
p359
aS'theophylline'
p360
aS'Cn1c(=O)n(C)c2c(c1=O)[nH]cn2'
p361
aa(lp362
S'-2156'
p363
aS'DB01118'
p364
aS'D02910'
p365
aS'amiodarone'
p366
aS'CCCCc1oc2c(c1C(=O)c1cc(I)c(c(c1)I)OCCN(CC)CC)cccc2'
p367
aa(lp368
S'-8953'
p369
aS'DB01390'
p370
aS'D01203'
p371
aS'sodium bicarbonate'
p372
aS'[O-]C(=O)O.[Na+]'
p373
aa(lp374
S'-5203'
p375
aS'DB01104'
p376
aS'D02360'
p377
aS'sertraline'
p378
aS'CN[C@H]1CC[C@H](c2c1cccc2)c1ccc(c(c1)Cl)Cl'
p379
aa(lp380
S'-5206'
p381
aS'DB01236'
p382
aS'D00547'
p383
aS'sevoflurane'
p384
aS'FCOC(C(F)(F)F)C(F)(F)F'
p385
aa(lp386
S'-5281104'
p387
aS'DB00910'
p388
aS'D00930'
p389
aS'paricalcitol'
p390
aS'O[C@H]1C[C@H](O)C/C(=C\\C=C\\2/[CH]CC[C@]3([C@H]2CC[C@@H]3[C@@H](/C=C/[C@@H](C(O)(C)C)C)C)C)/C1'
p391
aa(lp392
S'-4917'
p393
aS'DB00433'
p394
aS'D00493'
p395
aS'prochlorperazine'
p396
aS'CN1CCN(CC1)CCCN1c2ccccc2Sc2c1cc(Cl)cc2'
p397
aa(lp398
S'-4914'
p399
aS'DB00721'
p400
aS'""'
p401
aS'procaine'
p402
aS'CCN(CCOC(=O)c1ccc(cc1)N)CC'
p403
aa(lp404
S'-4913'
p405
aS'DB01035'
p406
aS'""'
p407
aS'procainamide'
p408
aS'CCN(CCNC(=O)c1ccc(cc1)N)CC'
p409
aa(lp410
S'-3339'
p411
aS'DB01039'
p412
aS'D00565'
p413
aS'fenofibrate'
p414
aS'CC(OC(=O)C(Oc1ccc(cc1)C(=O)c1ccc(cc1)Cl)(C)C)C'
p415
aa(lp416
S'-4911'
p417
aS'DB01032'
p418
aS'D00475'
p419
aS'probenecid'
p420
aS'CCCN(S(=O)(=O)c1ccc(cc1)C(=O)O)CCC'
p421
aa(lp422
S'-213039'
p423
aS'DB01264'
p424
aS'D03656'
p425
aS'Darunavir'
p426
aS'CC(CN(S(=O)(=O)c1ccc(cc1)N)C[C@H]([C@H](Cc1ccccc1)NC(=O)O[C@H]1CO[C@@H]2[C@H]1CCO2)O)C'
p427
aa(lp428
S'-6436173'
p429
aS'DB01220'
p430
aS'D02554'
p431
aS'rifaximin'
p432
aS'CO[C@H]1/C=C/O[C@@]2(C)Oc3c(C2=O)c2c(c(c3C)O)c(O)c(c3c2nc2n3ccc(c2)C)NC(=O)/C(=C\\C=C\\[C@@H]([C@@H]([C@H]([C@H]([C@@H]([C@@H]([C@H]1C)OC(=O)C)C)O)C)O)C)/C'
p433
aa(lp434
S'-2088'
p435
aS'DB00630'
p436
aS'""'
p437
aS'alendronate'
p438
aS'NCCCC(P(=O)(O)O)(P(=O)(O)O)O'
p439
aa(lp440
S'-2082'
p441
aS'DB00518'
p442
aS'D00134'
p443
aS'albendazole'
p444
aS'CCCSc1ccc2c(c1)[nH]c(n2)NC(=O)OC'
p445
aa(lp446
S'-5515'
p447
aS'DB01030'
p448
aS'""'
p449
aS'topotecan'
p450
aS'CC[C@@]1(O)C(=O)OCc2c1cc1c3nc4ccc(c(c4cc3Cn1c2=O)CN(C)C)O'
p451
aa(lp452
S'-5516'
p453
aS'DB00539'
p454
aS'""'
p455
aS'toremifene'
p456
aS'ClCC/C(=C(\\c1ccccc1)/c1ccc(cc1)OCCN(C)C)/c1ccccc1'
p457
aa(lp458
S'-2145'
p459
aS'DB00357'
p460
aS'D00574'
p461
aS'aminoglutethimide'
p462
aS'CCC1(CCC(=O)NC1=O)c1ccc(cc1)N'
p463
aa(lp464
S'-5512'
p465
aS'DB01036'
p466
aS'D00646'
p467
aS'tolterodine'
p468
aS'Cc1ccc(c(c1)[C@@H](c1ccccc1)CCN(C(C)C)C(C)C)O'
p469
aa(lp470
S'-5735'
p471
aS'DB01198'
p472
aS'D01372'
p473
aS'zopiclone'
p474
aS'CN1CCN(CC1)C(=O)OC1c2nccnc2C(=O)N1c1ccc(cn1)Cl'
p475
aa(lp476
S'-5734'
p477
aS'DB00909'
p478
aS'D00538'
p479
aS'zonisamide'
p480
aS'NS(=O)(=O)Cc1noc2c1cccc2'
p481
aa(lp482
S'-5731'
p483
aS'DB00315'
p484
aS'D00415'
p485
aS'zolmitriptan'
p486
aS'CN(CCc1c[nH]c2c1cc(C[C@H]1COC(=O)N1)cc2)C'
p487
aa(lp488
S'-5732'
p489
aS'DB00425'
p490
aS'""'
p491
aS'zolpidem'
p492
aS'Cc1ccc(cc1)c1nc2n(c1CC(=O)N(C)C)cc(cc2)C'
p493
aa(lp494
S'-3203'
p495
aS'DB00625'
p496
aS'D00896'
p497
aS'efavirenz'
p498
aS'FC([C@@]1(C#CC2CC2)OC(=O)Nc2c1cc(Cl)cc2)(F)F'
p499
aa(lp500
S'-2140'
p501
aS'DB00271'
p502
aS'D01013'
p503
aS'Diatrizoate'
p504
aS'CC(=O)Nc1c(I)c(NC(=O)C)c(c(c1I)C(=O)O)I'
p505
aa(lp506
S'-4485'
p507
aS'DB01115'
p508
aS'D00437'
p509
aS'nifedipine'
p510
aS'COC(=O)C1=C(C)NC(=C(C1c1ccccc1[N+](=O)[O-])C(=O)OC)C'
p511
aa(lp512
S'-60707'
p513
aS'DB00760'
p514
aS'D02222'
p515
aS'meropenem'
p516
aS'C[C@H]([C@H]1C(=O)N2[C@@H]1[C@@H](C)C(=C2C(=O)O)S[C@@H]1CN[C@@H](C1)C(=O)N(C)C)O'
p517
aa(lp518
S'-3117'
p519
aS'DB00822'
p520
aS'D00131'
p521
aS'disulfiram'
p522
aS'CCN(C(=S)SSC(=S)N(CC)CC)CC'
p523
aa(lp524
S'-3114'
p525
aS'DB00280'
p526
aS'D00303'
p527
aS'disopyramide'
p528
aS'CC(N(C(C)C)CCC(c1ccccn1)(c1ccccc1)C(=O)N)C'
p529
aa(lp530
S'-4645'
p531
aS'DB00595'
p532
aS'""'
p533
aS'oxytetracycline'
p534
aS'CN([C@@H]1C(=C(C(=O)N)C(=O)[C@@]2([C@H]1[C@@H](O)[C@H]1C(=C2O)C(=O)c2c([C@@]1(C)O)cccc2O)O)O)C'
p535
aa(lp536
S'-38904'
p537
aS'DB00958'
p538
aS'D01363'
p539
aS'carboplatin'
p540
aS'O=C1O[Pt]OC(=O)C21CCC2.N.N'
p541
aa(lp542
S'-60147'
p543
aS'DB00706'
p544
aS'""'
p545
aS'tamsulosin'
p546
aS'CCOc1ccccc1OCCN[C@@H](Cc1ccc(c(c1)S(=O)(=O)N)OC)C'
p547
aa(lp548
S'-4674'
p549
aS'DB00282'
p550
aS'""'
p551
aS'pamidronate'
p552
aS'NCCC(P(=O)(O)O)(P(=O)(O)O)O'
p553
aa(lp554
S'-2522'
p555
aS'DB02300'
p556
aS'D01125'
p557
aS'calcipotriol'
p558
aS'O[C@H]1C[C@H](O)C(=C)/C(=C\\C=C\\2/CCC[C@]3([C@H]2CC[C@@H]3[C@@H](/C=C/[C@H](C2CC2)O)C)C)/C1'
p559
aa(lp560
S'-2524'
p561
aS'DB00136'
p562
aS'D00129'
p563
aS'calcitriol'
p564
aS'O[C@H]1C[C@H](O)C(=C)/C(=C\\C=C\\2/CCC[C@]3([C@H]2CC[C@@H]3[C@@H](CCCC(O)(C)C)C)C)/C1'
p565
aa(lp566
S'-104865'
p567
aS'DB00559'
p568
aS'D01227'
p569
aS'bosentan'
p570
aS'OCCOc1nc(nc(c1Oc1ccccc1OC)NS(=O)(=O)c1ccc(cc1)C(C)(C)C)c1ncccn1'
p571
aa(lp572
S'-4659568'
p573
aS'DB00494'
p574
aS'D00781'
p575
aS'entacapone'
p576
aS'CCN(C(=O)/C(=C/c1cc(O)c(c(c1)[N+](=O)[O-])O)/C#N)CC'
p577
aa(lp578
S'-4659569'
p579
aS'DB00323'
p580
aS'D00786'
p581
aS'tolcapone'
p582
aS'Cc1ccc(cc1)C(=O)c1cc(O)c(c(c1)[N+](=O)[O-])O'
p583
aa(lp584
S'-3062'
p585
aS'DB00390'
p586
aS'D00298'
p587
aS'digoxin'
p588
aS'O=C1OCC(=C1)[C@H]1CC[C@]2([C@]1(C)[C@H](O)C[C@H]1[C@H]2CC[C@H]2[C@]1(C)CC[C@@H](C2)O[C@H]1C[C@H](O)[C@@H]([C@H](O1)C)O[C@H]1C[C@H](O)[C@@H]([C@H](O1)C)O[C@H]1C[C@H](O)[C@@H]([C@H](O1)C)O)O'
p589
aa(lp590
S'-3066'
p591
aS'DB00320'
p592
aS'""'
p593
aS'dihydroergotamine'
p594
aS'CN1C[C@@H](C[C@H]2[C@H]1Cc1c[nH]c3c1c2ccc3)C(=O)N[C@]1(C)O[C@@]2(N(C1=O)[C@@H](Cc1ccccc1)C(=O)N1[C@H]2CCC1)O'
p595
aa(lp596
S'-154059'
p597
aS'DB01591'
p598
aS'""'
p599
aS'Solifenacin'
p600
aS'O=C(N1CCc2c([C@@H]1c1ccccc1)cccc2)O[C@H]1CN2CCC1CC2.OC(=O)CCC(=O)O'
p601
aa(lp602
S'-4889'
p603
aS'DB00175'
p604
aS'""'
p605
aS'pravastatin'
p606
aS'CC[C@@H](C(=O)O[C@H]1C[C@H](O)C=C2[C@H]1[C@@H](CC[C@H](C[C@H](CC(=O)O)O)O)[C@H](C=C2)C)C'
p607
aa(lp608
S'-4264'
p609
aS'DB00410'
p610
aS'D01076'
p611
aS'mupirocin'
p612
aS'OC(=O)CCCCCCCCOC(=O)/C=C(/C[C@@H]1OC[C@@H]([C@H]([C@H]1O)O)C[C@H]1O[C@H]1[C@H]([C@@H](O)C)C)\\C'
p613
aa(lp614
S'-750'
p615
aS'DB00145'
p616
aS'D00011'
p617
aS'Glycine'
p618
aS'NCC(=O)O'
p619
aa(lp620
S'-2637'
p621
aS'DB01331'
p622
aS'D02345'
p623
aS'cefoxitin'
p624
aS'CO[C@@]1(NC(=O)Cc2cccs2)C(=O)N2[C@@H]1SCC(=C2C(=O)O)COC(=O)N'
p625
aa(lp626
S'-2631'
p627
aS'DB00493'
p628
aS'""'
p629
aS'cefotaxime'
p630
aS'CO/N=C(/c1csc(n1)N)\\C(=O)N[C@@H]1C(=O)N2[C@@H]1SCC(=C2C(=O)O)COC(=O)C'
p631
aa(lp632
S'-160051'
p633
aS'DB00930'
p634
aS'""'
p635
aS'Colesevelam'
p636
aS'[CH]CC(*[NH2+]CC(CNCC(C[CH])[CH])O)[CH].[CH]CC(*[NH2+]CCCCCC[N+](C)(C)C)[CH].[NH3+]*C(C[CH])[CH].CCCCCCCCCC[NH2+]*C(C[CH])[CH].Cl.Cl.Cl.Cl.Cl'
p637
aa(lp638
S'-1986'
p639
aS'DB00819'
p640
aS'D00218'
p641
aS'acetazolamide'
p642
aS'CC(=O)Nc1nnc(s1)S(=O)(=O)N'
p643
aa(lp644
S'-3454'
p645
aS'DB01004'
p646
aS'D00333'
p647
aS'ganciclovir'
p648
aS'OCC(OCn1cnc2c1[nH]c(N)nc2=O)CO'
p649
aa(lp650
S'-3690'
p651
aS'DB01181'
p652
aS'D00343'
p653
aS'ifosfamide'
p654
aS'ClCCNP1(=O)OCCCN1CCCl'
p655
aa(lp656
S'-151165'
p657
aS'DB00673'
p658
aS'""'
p659
aS'aprepitant'
p660
aS'Fc1ccc(cc1)[C@H]1[C@H](OCCN1Cc1n[nH]c(=O)[nH]1)O[C@@H](c1cc(cc(c1)C(F)(F)F)C(F)(F)F)C'
p661
aa(lp662
S'-3696'
p663
aS'DB00458'
p664
aS'""'
p665
aS'imipramine'
p666
aS'CN(CCCN1c2ccccc2CCc2c1cccc2)C'
p667
aa(lp668
S'-3698'
p669
aS'DB01427'
p670
aS'D00231'
p671
aS'amrinone'
p672
aS'O=c1[nH]cc(cc1N)c1ccncc1'
p673
aa(lp674
S'-3929'
p675
aS'DB00601'
p676
aS'D00947'
p677
aS'linezolid'
p678
aS'CC(=O)NC[C@@H]1OC(=O)N(C1)c1ccc(c(c1)F)N1CCOCC1'
p679
aa(lp680
S'-4195'
p681
aS'DB00211'
p682
aS'""'
p683
aS'midodrine'
p684
aS'COc1ccc(cc1C(CNC(=O)CN)O)OC'
p685
aa(lp686
S'-2949'
p687
aS'DB01406'
p688
aS'D00289'
p689
aS'danazol'
p690
aS'C#C[C@]1(O)CC[C@@H]2[C@]1(C)CC[C@H]1[C@H]2CCC2=Cc3c(C[C@]12C)cno3'
p691
aa(lp692
S'-4078'
p693
aS'DB00933'
p694
aS'D02671'
p695
aS'mesoridazine'
p696
aS'CN1CCCCC1CCN1c2ccccc2Sc2c1cc(cc2)S(=O)C'
p697
aa(lp698
S'-4900'
p699
aS'DB00635'
p700
aS'""'
p701
aS'prednisone'
p702
aS'OCC(=O)[C@@]1(O)CC[C@@H]2[C@]1(C)CC(=O)[C@H]1[C@H]2CCC2=CC(=O)C=C[C@]12C'
p703
aa(lp704
S'-5593'
p705
aS'DB00809'
p706
aS'D00397'
p707
aS'tropicamide'
p708
aS'CCN(C(=O)C(c1ccccc1)CO)Cc1ccncc1'
p709
aa(lp710
S'-5452'
p711
aS'DB00679'
p712
aS'D00373'
p713
aS'thioridazine'
p714
aS'CSc1ccc2c(c1)N(CCC1CCCCN1C)c1c(S2)cccc1'
p715
aa(lp716
S'-4107'
p717
aS'DB00423'
p718
aS'D00402'
p719
aS'methocarbamol'
p720
aS'COc1ccccc1OCC(COC(=O)N)O'
p721
aa(lp722
S'-71329'
p723
aS'DB00204'
p724
aS'D00647'
p725
aS'dofetilide'
p726
aS'CN(CCc1ccc(cc1)NS(=O)(=O)C)CCOc1ccc(cc1)NS(=O)(=O)C'
p727
aa(lp728
S'-5212'
p729
aS'DB00203'
p730
aS'D02229'
p731
aS'sildenafil'
p732
aS'CCCc1nn(c2c1[nH]c(nc2=O)c1cc(ccc1OCC)S(=O)(=O)N1CCN(CC1)C)C'
p733
aa(lp734
S'-5210'
p735
aS'DB01105'
p736
aS'D08513'
p737
aS'sibutramine'
p738
aS'CC(CC(C1(CCC1)c1ccc(cc1)Cl)N(C)C)C'
p739
aa(lp740
S'-5215'
p741
aS'DB00359'
p742
aS'D00587'
p743
aS'sulfadiazine'
p744
aS'Nc1ccc(cc1)S(=O)(=O)Nc1ncccn1'
p745
aa(lp746
S'-4920'
p747
aS'DB00396'
p748
aS'D00066'
p749
aS'progesterone'
p750
aS'O=C1CC[C@]2(C(=C1)CC[C@@H]1[C@@H]2CC[C@]2([C@H]1CC[C@@H]2C(=O)C)C)C'
p751
aa(lp752
S'-4927'
p753
aS'DB01069'
p754
aS'D00494'
p755
aS'promethazine'
p756
aS'CN(C(CN1c2ccccc2Sc2c1cccc2)C)C'
p757
aa(lp758
S'-8612'
p759
aS'DB01161'
p760
aS'D00732'
p761
aS'Chloroprocaine'
p762
aS'CCN(CCOC(=O)c1ccc(cc1Cl)N)CC'
p763
aa(lp764
S'-5430'
p765
aS'DB00730'
p766
aS'D00372'
p767
aS'thiabendazole'
p768
aS'c1scc(n1)c1nc2c([nH]1)cccc2'
p769
aa(lp770
S'-3324'
p771
aS'DB00426'
p772
aS'D00317'
p773
aS'famciclovir'
p774
aS'CC(=O)OCC(CCn1cnc2c1nc(N)nc2)COC(=O)C'
p775
aa(lp776
S'-3325'
p777
aS'DB00927'
p778
aS'D00318'
p779
aS'famotidine'
p780
aS'NC(=Nc1scc(n1)CSCCC(=NS(=O)(=O)N)N)N'
p781
aa(lp782
S'-124087'
p783
aS'DB00967'
p784
aS'""'
p785
aS'desloratadine'
p786
aS'Clc1ccc2c(c1)CCc1c(C2=C2CCNCC2)nccc1'
p787
aa(lp788
S'-4856'
p789
aS'DB00554'
p790
aS'D00127'
p791
aS'piroxicam'
p792
aS'O=C(C1=C(O)c2ccccc2S(=O)(=O)N1C)Nc1ccccn1'
p793
aa(lp794
S'-5508'
p795
aS'DB00500'
p796
aS'""'
p797
aS'tolmetin'
p798
aS'OC(=O)Cc1ccc(n1C)C(=O)c1ccc(cc1)C'
p799
aa(lp800
S'-5504'
p801
aS'DB00797'
p802
aS'""'
p803
aS'tolazoline'
p804
aS'c1ccc(cc1)CC1=NCCN1'
p805
aa(lp806
S'-5505'
p807
aS'DB01124'
p808
aS'D00380'
p809
aS'tolbutamide'
p810
aS'CCCCNC(=O)NS(=O)(=O)c1ccc(cc1)C'
p811
aa(lp812
S'-54841'
p813
aS'DB00289'
p814
aS'D02574'
p815
aS'atomoxetine'
p816
aS'CNCC[C@H](c1ccccc1)Oc1ccccc1C'
p817
aa(lp818
S'-5726'
p819
aS'DB00495'
p820
aS'D00413'
p821
aS'zidovudine'
p822
aS'OC[C@H]1O[C@H](C[C@@H]1N=[N+]=[N-])n1cc(C)c(=O)[nH]c1=O'
p823
aa(lp824
S'-5721'
p825
aS'DB00558'
p826
aS'D00902'
p827
aS'zanamivir'
p828
aS'OC[C@H]([C@H]([C@@H]1OC(=C[C@@H]([C@H]1NC(=O)C)N=C(N)N)C(=O)O)O)O'
p829
aa(lp830
S'-2182'
p831
aS'DB00261'
p832
aS'D02933'
p833
aS'anagrelide'
p834
aS'O=C1NC2=Nc3c(CN2C1)c(Cl)c(cc3)Cl'
p835
aa(lp836
S'-2187'
p837
aS'DB01217'
p838
aS'D00960'
p839
aS'anastrozole'
p840
aS'N#CC(c1cc(cc(c1)C(C#N)(C)C)Cn1ncnc1)(C)C'
p841
aa(lp842
S'-4993'
p843
aS'DB00205'
p844
aS'D00488'
p845
aS'pyrimethamine'
p846
aS'CCc1nc(N)nc(c1c1ccc(cc1)Cl)N'
p847
aa(lp848
S'-3100'
p849
aS'DB01075'
p850
aS'D00300'
p851
aS'diphenhydramine'
p852
aS'CN(CCOC(c1ccccc1)c1ccccc1)C'
p853
aa(lp854
S'-861'
p855
aS'DB00279'
p856
aS'""'
p857
aS'Liothyronine'
p858
aS'OC(=O)[C@H](Cc1cc(I)c(c(c1)I)Oc1ccc(c(c1)I)O)N'
p859
aa(lp860
S'-3105'
p861
aS'DB00449'
p862
aS'D02349'
p863
aS'dipivefrin'
p864
aS'CNCC(c1ccc(c(c1)OC(=O)C(C)(C)C)OC(=O)C(C)(C)C)O'
p865
aa(lp866
S'-3108'
p867
aS'DB00975'
p868
aS'D00302'
p869
aS'dipyridamole'
p870
aS'OCCN(c1nc(N2CCCCC2)c2c(n1)c(nc(n2)N(CCO)CCO)N1CCCCC1)CCO'
p871
aa(lp872
S'-4675'
p873
aS'DB01337'
p874
aS'""'
p875
aS'pancuronium'
p876
aS'CC(=O)O[C@H]1C[C@@H]2CC[C@@H]3[C@@H]([C@]2(C[C@@H]1[N+]1(C)CCCCC1)C)CC[C@]1([C@H]3C[C@@H]([C@@H]1OC(=O)C)[N+]1(C)CCCCC1)C'
p877
aa(lp878
S'-3468412'
p879
aS'DB00646'
p880
aS'D00202'
p881
aS'nystatin'
p882
aS'OC1CCC(O)C(O)CC(=O)CC(O)C(C(=O)O)C(O)CC(/C=C/C=C/C=C/C=C/CC/C=C/C=C/C(C(C(C(OC(=O)CC(CC(C1)O)O)C)C)O)C)OC1O[C@H](C)[C@H]([C@@H]([C@@H]1O)N)O'
p883
aa(lp884
S'-3075'
p885
aS'DB00343'
p886
aS'""'
p887
aS'diltiazem'
p888
aS'COc1ccc(cc1)[C@@H]1Sc2ccccc2N(C(=O)[C@@H]1OC(=O)C)CCN(C)C'
p889
aa(lp890
S'-68844'
p891
aS'DB01194'
p892
aS'D00652'
p893
aS'brinzolamide'
p894
aS'COCCCN1C[C@H](NCC)c2c(S1(=O)=O)sc(c2)S(=O)(=O)N'
p895
aa(lp896
S'-60714'
p897
aS'DB00597'
p898
aS'D01137'
p899
aS'gadoteridol'
p900
aS'CC(CN1CCN(CCN(CCN(CC1)CC(=O)[O-])CC(=O)[O-])CC(=O)[O-])O.[Gd+3]'
p901
aa(lp902
S'-9571074'
p903
aS'DB01066'
p904
aS'D01628'
p905
aS'cefditoren'
p906
aS'CO/N=C(\\C(=O)N[C@@H]1C(=O)N2[C@@H]1SCC(=C2C(=O)O)/C=C\\c1scnc1C)/c1csc(n1)N'
p907
aa(lp908
S'-2583'
p909
aS'DB00521'
p910
aS'""'
p911
aS'carteolol'
p912
aS'OC(COc1cccc2c1CCC(=O)N2)CNC(C)(C)C'
p913
aa(lp914
S'-4451'
p915
aS'DB00220'
p916
aS'""'
p917
aS'nelfinavir'
p918
aS'O[C@@H]([C@@H](NC(=O)c1cccc(c1C)O)CSc1ccccc1)CN1C[C@H]2CCCC[C@H]2C[C@H]1C(=O)NC(C)(C)C'
p919
aa(lp920
S'-2512'
p921
aS'DB00248'
p922
aS'D00987'
p923
aS'cabergoline'
p924
aS'C=CCN1C[C@@H](C[C@H]2[C@H]1Cc1c[nH]c3c1c2ccc3)C(=O)N(C(=O)NCC)CCCN(C)C'
p925
aa(lp926
S'-2629'
p927
aS'DB01329'
p928
aS'""'
p929
aS'cefoperazone'
p930
aS'CCN1CCN(C(=O)C1=O)C(=O)NC(c1ccc(cc1)O)C(=O)N[C@@H]1C(=O)N2[C@@H]1SCC(=C2C(=O)O)CSc1nnnn1C'
p931
aa(lp932
S'-137'
p933
aS'DB00855'
p934
aS'""'
p935
aS'Aminolevulinic acid'
p936
aS'NCC(=O)CCC(=O)O'
p937
aa(lp938
S'-41317'
p939
aS'DB00459'
p940
aS'D02754'
p941
aS'acitretin'
p942
aS'COc1cc(C)c(c(c1C)C)/C=C/C(=C/C=C/C(=C/C(=O)O)/C)/C'
p943
aa(lp944
S'-2622'
p945
aS'DB01413'
p946
aS'D02376'
p947
aS'cefepime'
p948
aS'CO/N=C(/c1csc(n1)N)\\C(=O)N[C@@H]1C(=O)N2[C@@H]1SCC(=C2C(=O)[O-])C[N+]1(C)CCCC1'
p949
aa(lp950
S'-62959'
p951
aS'DB00685'
p952
aS'""'
p953
aS'trovafloxacin'
p954
aS'NC1[C@@H]2[C@H]1CN(C2)c1nc2c(cc1F)c(=O)c(cn2c1ccc(cc1F)F)C(=O)O'
p955
aa(lp956
S'-2995'
p957
aS'DB01151'
p958
aS'""'
p959
aS'desipramine'
p960
aS'CNCCCN1c2ccccc2CCc2c1cccc2'
p961
aa(lp962
S'-2487'
p963
aS'DB00611'
p964
aS'D00837'
p965
aS'butorphanol'
p966
aS'Oc1ccc2c(c1)[C@@]13CCCC[C@]3([C@H](C2)N(CC1)CC1CCC1)O'
p967
aa(lp968
S'-3467'
p969
aS'DB00798'
p970
aS'""'
p971
aS'gentamicin'
p972
aS'CNC(C1CCC(C(O1)OC1C(N)CC(C(C1O)OC1OCC(C(C1O)NC)(C)O)N)N)C'
p973
aa(lp974
S'-3463'
p975
aS'DB01241'
p976
aS'D00334'
p977
aS'gemfibrozil'
p978
aS'Cc1ccc(c(c1)OCCCC(C(=O)O)(C)C)C'
p979
aa(lp980
S'-3461'
p981
aS'DB00441'
p982
aS'D02368'
p983
aS'gemcitabine'
p984
aS'OC[C@H]1O[C@H](C([C@@H]1O)(F)F)n1ccc(nc1=O)N'
p985
aa(lp986
S'-3915'
p987
aS'DB01106'
p988
aS'D01717'
p989
aS'levocabastine'
p990
aS'N#CC1(CCC(CC1)N1CC[C@]([C@@H](C1)C)(C(=O)O)c1ccccc1)c1ccc(cc1)F'
p991
aa(lp992
S'-3914'
p993
aS'DB01210'
p994
aS'""'
p995
aS'levobunolol'
p996
aS'O[C@H](COc1cccc2c1CCCC2=O)CNC(C)(C)C'
p997
aa(lp998
S'-3661'
p999
aS'DB00572'
p1000
aS'D00113'
p1001
aS'atropine'
p1002
aS'OCC(c1ccccc1)C(=O)O[C@@H]1C[C@H]2CC[C@@H](C1)N2C'
p1003
aa(lp1004
S'-39042'
p1005
aS'DB01393'
p1006
aS'D01366'
p1007
aS'bezafibrate'
p1008
aS'Clc1ccc(cc1)C(=O)NCCc1ccc(cc1)OC(C(=O)O)(C)C'
p1009
aa(lp1010
S'-4062'
p1011
aS'DB00961'
p1012
aS'""'
p1013
aS'mepivacaine'
p1014
aS'CN1CCCCC1C(=O)Nc1c(C)cccc1C'
p1015
aa(lp1016
S'-4060'
p1017
aS'DB00532'
p1018
aS'D00375'
p1019
aS'mephenytoin'
p1020
aS'CCC1(NC(=O)N(C1=O)C)c1ccccc1'
p1021
aa(lp1022
S'-4064'
p1023
aS'DB00371'
p1024
aS'D00376'
p1025
aS'meprobamate'
p1026
aS'CCCC(COC(=O)N)(COC(=O)N)C'
p1027
aa(lp1028
S'-2249'
p1029
aS'DB00335'
p1030
aS'D00235'
p1031
aS'atenolol'
p1032
aS'OC(COc1ccc(cc1)CC(=O)N)CNC(C)C'
p1033
aa(lp1034
S'-152945'
p1035
aS'DB01126'
p1036
aS'D03820'
p1037
aS'dutasteride'
p1038
aS'O=C1C=C[C@]2([C@H](N1)CC[C@@H]1[C@@H]2CC[C@]2([C@H]1CC[C@@H]2C(=O)Nc1cc(ccc1C(F)(F)F)C(F)(F)F)C)C'
p1039
aa(lp1040
S'-4112'
p1041
aS'DB00563'
p1042
aS'D00142'
p1043
aS'methotrexate'
p1044
aS'OC(=O)CC[C@@H](C(=O)O)NC(=O)c1ccc(cc1)N(Cc1cnc2c(n1)c(N)nc(n2)N)C'
p1045
aa(lp1046
S'-11947681'
p1047
aS'DB00325'
p1048
aS'""'
p1049
aS'nitroprusside'
p1050
aS'O=N[Fe](C#N)(C#N)(C#N)(C#N)C#N'
p1051
aa(lp1052
S'-2658'
p1053
aS'DB01112'
p1054
aS'D00262'
p1055
aS'cefuroxime'
p1056
aS'CO/N=C(\\C(=O)N[C@@H]1C(=O)N2[C@@H]1SCC(=C2C(=O)O)COC(=O)N)/c1ccco1'
p1057
aa(lp1058
S'-5329102'
p1059
aS'DB01268'
p1060
aS'D06402'
p1061
aS'Sunitinib'
p1062
aS'CCN(CCNC(=O)c1c(C)[nH]c(c1C)/C=C/1\\C(=O)Nc2c1cc(F)cc2)CC'
p1063
aa(lp1064
S'-4934'
p1065
aS'DB00782'
p1066
aS'""'
p1067
aS'propantheline'
p1068
aS'O=C(C1c2ccccc2Oc2c1cccc2)OCC[N+](C(C)C)(C(C)C)C'
p1069
aa(lp1070
S'-4935'
p1071
aS'DB00807'
p1072
aS'""'
p1073
aS'proparacaine'
p1074
aS'CCCOc1ccc(cc1N)C(=O)OCCN(CC)CC'
p1075
aa(lp1076
S'-4932'
p1077
aS'DB01182'
p1078
aS'""'
p1079
aS'propafenone'
p1080
aS'CCCNCC(COc1ccccc1C(=O)CCc1ccccc1)O'
p1081
aa(lp1082
S'-2655'
p1083
aS'DB01332'
p1084
aS'""'
p1085
aS'ceftizoxime'
p1086
aS'CO/N=C(/c1csc(n1)N)\\C(=O)N[C@H]1[C@H]2SCC=C(N2C1=O)C(=O)O'
p1087
aa(lp1088
S'-39860'
p1089
aS'DB00486'
p1090
aS'D05099'
p1091
aS'nabilone'
p1092
aS'CCCCCCC(c1cc(O)c2c(c1)OC([C@H]1[C@H]2CC(=O)CC1)(C)C)(C)C'
p1093
aa(lp1094
S'-5538'
p1095
aS'DB00755'
p1096
aS'D00094'
p1097
aS'Tretinoin'
p1098
aS'CC(=CC=CC(=CC(=O)O)C)C=CC1=C(C)CCCC1(C)C'
p1099
aa(lp1100
S'-4845'
p1101
aS'DB01291'
p1102
aS'""'
p1103
aS'pirbuterol'
p1104
aS'OCc1nc(ccc1O)C(CNC(C)(C)C)O'
p1105
aa(lp1106
S'-5533'
p1107
aS'DB00656'
p1108
aS'""'
p1109
aS'trazodone'
p1110
aS'Clc1cccc(c1)N1CCN(CC1)CCCn1nc2n(c1=O)cccc2'
p1111
aa(lp1112
S'-5717'
p1113
aS'DB00549'
p1114
aS'D00411'
p1115
aS'zafirlukast'
p1116
aS'COc1cc(ccc1Cc1cn(c2c1cc(cc2)NC(=O)OC1CCCC1)C)C(=O)NS(=O)(=O)c1ccccc1C'
p1117
aa(lp1118
S'-5719'
p1119
aS'DB00962'
p1120
aS'D00530'
p1121
aS'zaleplon'
p1122
aS'CCN(c1cccc(c1)c1ccnc2n1ncc2C#N)C(=O)C'
p1123
aa(lp1124
S'-5718'
p1125
aS'DB00943'
p1126
aS'D00412'
p1127
aS'zalcitabine'
p1128
aS'Nc1ccn(c(=O)n1)[C@H]1CC[C@H](O1)CO'
p1129
aa(lp1130
S'-4201'
p1131
aS'DB00350'
p1132
aS'D00418'
p1133
aS'minoxidil'
p1134
aS'Nc1cc(nc([n+]1[O-])N)N1CCCCC1'
p1135
aa(lp1136
S'-5155'
p1137
aS'DB00649'
p1138
aS'D00445'
p1139
aS'stavudine'
p1140
aS'Cc1cn([C@@H]2O[C@@H](C=C2)CO)c(=O)[nH]c1=O'
p1141
aa(lp1142
S'-5404'
p1143
aS'DB00251'
p1144
aS'D00888'
p1145
aS'terconazole'
p1146
aS'Clc1ccc(c(c1)Cl)[C@]1(OC[C@@H](O1)COc1ccc(cc1)N1CCN(CC1)C(C)C)Cn1cncn1'
p1147
aa(lp1148
S'-5403'
p1149
aS'DB00871'
p1150
aS'""'
p1151
aS'terbutaline'
p1152
aS'OC(c1cc(O)cc(c1)O)CNC(C)(C)C'
p1153
aa(lp1154
S'-5402'
p1155
aS'DB00857'
p1156
aS'D02375'
p1157
aS'terbinafine'
p1158
aS'CN(Cc1cccc2c1cccc2)CC=CC#CC(C)(C)C'
p1159
aa(lp1160
S'-5401'
p1161
aS'DB01162'
p1162
aS'""'
p1163
aS'terazosin'
p1164
aS'COc1cc2nc(nc(c2cc1OC)N)N1CCN(CC1)C(=O)C1CCCO1'
p1165
aa(lp1166
S'-5152'
p1167
aS'DB00938'
p1168
aS'D05792'
p1169
aS'salmeterol'
p1170
aS'OCc1cc(ccc1O)C(CNCCCCCCOCCCCc1ccccc1)O'
p1171
aa(lp1172
S'-4666'
p1173
aS'DB01229'
p1174
aS'D00491'
p1175
aS'paclitaxel'
p1176
aS'CC(=O)O[C@H]1C(=O)[C@]2(C)[C@@H](O)C[C@@H]3[C@]([C@H]2[C@@H]([C@]2(C(C1=C(C)[C@@H](OC(=O)[C@@H]([C@H](c1ccccc1)NC(=O)c1ccccc1)O)C2)(C)C)O)OC(=O)c1ccccc1)(CO3)OC(=O)C'
p1177
aa(lp1178
S'-2160'
p1179
aS'DB00321'
p1180
aS'""'
p1181
aS'amitriptyline'
p1182
aS'CN(CC/C=C/1\\c2ccccc2CCc2c1cccc2)C'
p1183
aa(lp1184
S'-48041'
p1185
aS'DB01228'
p1186
aS'""'
p1187
aS'encainide'
p1188
aS'COc1ccc(cc1)C(=O)Nc1ccccc1CCC1CCCCN1C'
p1189
aa(lp1190
S'-815'
p1191
aS'DB01172'
p1192
aS'""'
p1193
aS'kanamycin'
p1194
aS'OC[C@H]1O[C@H](O[C@H]2[C@H](N)C[C@@H]([C@H]([C@@H]2O)O[C@H]2O[C@H](CN)[C@H]([C@@H]([C@H]2O)O)O)N)[C@@H]([C@H]([C@@H]1O)N)O'
p1195
aa(lp1196
S'-2441'
p1197
aS'DB01558'
p1198
aS'D01245'
p1199
aS'Bromazepam'
p1200
aS'O=C1CN=C(c2c(N1)ccc(c2)Br)c1ccccn1'
p1201
aa(lp1202
S'-60169'
p1203
aS'DB01135'
p1204
aS'D00760'
p1205
aS'Doxacurium chloride'
p1206
aS'COc1c(OC)cc2c(c1OC)C(Cc1cc(OC)c(c(c1)OC)OC)[N+](CC2)(C)CCCOC(=O)CCC(=O)OCCC[N+]1(C)CCc2c(C1Cc1cc(OC)c(c(c1)OC)OC)c(OC)c(c(c2)OC)OC'
p1207
aa(lp1208
S'-4595'
p1209
aS'DB00904'
p1210
aS'D00456'
p1211
aS'ondansetron'
p1212
aS'O=C1C(CCc2c1c1ccccc1n2C)Cn1ccnc1C'
p1213
aa(lp1214
S'-60164'
p1215
aS'DB00210'
p1216
aS'D01112'
p1217
aS'adapalene'
p1218
aS'COc1ccc(cc1C12CC3CC(C2)CC(C1)C3)c1ccc2c(c1)ccc(c2)C(=O)O'
p1219
aa(lp1220
S'-4599'
p1221
aS'DB01083'
p1222
aS'""'
p1223
aS'orlistat'
p1224
aS'CCCCCCCCCCC[C@@H](C[C@@H]1OC(=O)[C@H]1CCCCCC)OC(=O)[C@H](CC(C)C)NC=O'
p1225
aa(lp1226
S'-2431'
p1227
aS'DB01158'
p1228
aS'D00645'
p1229
aS'bretylium'
p1230
aS'CC[N+](Cc1ccccc1Br)(C)C'
p1231
aa(lp1232
S'-3000'
p1233
aS'DB00547'
p1234
aS'""'
p1235
aS'desoximetasone'
p1236
aS'OCC(=O)[C@H]1[C@H](C)C[C@@H]2[C@]1(C)C[C@H](O)[C@]1([C@H]2CCC2=CC(=O)C=C[C@]12C)F'
p1237
aa(lp1238
S'-3003'
p1239
aS'DB01234'
p1240
aS'D00292'
p1241
aS'dexamethasone'
p1242
aS'OCC(=O)[C@@]1(O)[C@H](C)C[C@@H]2[C@]1(C)C[C@H](O)[C@]1([C@H]2CCC2=CC(=O)C=C[C@]12C)F'
p1243
aa(lp1244
S'-3007'
p1245
aS'DB00182'
p1246
aS'""'
p1247
aS'amphetamine'
p1248
aS'CC(Cc1ccccc1)N'
p1249
aa(lp1250
S'-438204'
p1251
aS'DB05245'
p1252
aS'D00433'
p1253
aS'silver sulfadiazine'
p1254
aS'Nc1ccc(cc1)S(=O)(=O)[N-]c1ncccn1.[Ag+]'
p1255
aa(lp1256
S'-7029'
p1257
aS'DB00937'
p1258
aS'""'
p1259
aS'diethylpropion'
p1260
aS'CCN(C(C(=O)c1ccccc1)C)CC'
p1261
aa(lp1262
S'-123620'
p1263
aS'DB00764'
p1264
aS'""'
p1265
aS'mometasone'
p1266
aS'ClCC(=O)[C@@]1(O)[C@H](C)C[C@@H]2[C@]1(C)C[C@H](O)[C@]1([C@H]2CCC2=CC(=O)C=C[C@]12C)Cl'
p1267
aa(lp1268
S'-3002190'
p1269
aS'DB00976'
p1270
aS'D01078'
p1271
aS'telithromycin'
p1272
aS'CC[C@@H]1OC(=O)[C@H](C)C(=O)[C@H](C)[C@@H](O[C@@H]2O[C@H](C)C[C@@H]([C@H]2O)N(C)C)[C@](C[C@H](C(=O)[C@@H]([C@@H]2[C@@]1(C)OC(=O)N2CCCCn1cnc(c1)c1cccnc1)C)C)(C)OC'
p1273
aa(lp1274
S'-4449'
p1275
aS'DB01149'
p1276
aS'""'
p1277
aS'nefazodone'
p1278
aS'CCc1nn(c(=O)n1CCOc1ccccc1)CCCN1CCN(CC1)c1cccc(c1)Cl'
p1279
aa(lp1280
S'-2617'
p1281
aS'DB01327'
p1282
aS'D02299'
p1283
aS'cefazolin'
p1284
aS'O=C(N[C@@H]1C(=O)N2[C@@H]1SCC(=C2C(=O)O)CSc1nnc(s1)C)Cn1cnnn1'
p1285
aa(lp1286
S'-104758'
p1287
aS'DB00293'
p1288
aS'D01064'
p1289
aS'raltitrexed'
p1290
aS'OC(=O)CC[C@@H](C(=O)O)NC(=O)c1ccc(s1)N(Cc1ccc2c(c1)c(=O)nc([nH]2)C)C'
p1291
aa(lp1292
S'-3478'
p1293
aS'DB01067'
p1294
aS'D00335'
p1295
aS'glipizide'
p1296
aS'Cc1ncc(nc1)C(=O)NCCc1ccc(cc1)S(=O)(=O)NC(=O)NC1CCCCC1'
p1297
aa(lp1298
S'-23897'
p1299
aS'DB01618'
p1300
aS'""'
p1301
aS'molindone'
p1302
aS'CCc1c(C)[nH]c2c1C(=O)C(CC2)CN1CCOCC1'
p1303
aa(lp1304
S'-163742'
p1305
aS'DB00569'
p1306
aS'D01844'
p1307
aS'fondaparinux sodium'
p1308
aS'CO[C@H]1O[C@H](COS(=O)(=O)[O-])[C@H]([C@@H]([C@H]1NS(=O)(=O)[O-])O)O[C@@H]1O[C@@H](C(=O)O)[C@H]([C@@H]([C@H]1OS(=O)(=O)[O-])O)O[C@H]1O[C@H](COS(=O)(=O)[O-])[C@H]([C@@H]([C@H]1NS(=O)(=O)[O-])OS(=O)(=O)[O-])O[C@@H]1O[C@H](C(=O)O)[C@H]([C@@H]([C@H]1O)O)O[C@H]1O[C@H](COS(=O)(=O)[O-])[C@H]([C@@H]([C@H]1NS(=O)(=O)[O-])O)O.[Na].[Na].[Na].[Na].[Na].[Na].[Na].[Na].[Na].[Na]'
p1309
aa(lp1310
S'-3475'
p1311
aS'DB01120'
p1312
aS'D01599'
p1313
aS'gliclazide'
p1314
aS'O=C(NS(=O)(=O)c1ccc(cc1)C)NN1CC2C(C1)CCC2'
p1315
aa(lp1316
S'-3476'
p1317
aS'DB00222'
p1318
aS'D00593'
p1319
aS'glimepiride'
p1320
aS'CCC1=C(C)CN(C1=O)C(=O)NCCc1ccc(cc1)S(=O)(=O)NC(=O)NC1CCC(CC1)C'
p1321
aa(lp1322
S'-2891'
p1323
aS'DB00115'
p1324
aS'D00166'
p1325
aS'Cyanocobalamin'
p1326
aS'OC[C@H]1O[C@H]2[C@@H]([C@@H]1OP(=O)(O)OC(C)CNC(=O)CC[C@]1(C3=C(C4=[N]5[Co]67(n8cn2c2cc(C)c(cc82)C)(C#N)N3[C@@H]([C@@]2([N]7=C(C(=C3[N]6=C(C=C5C([C@@H]4CCC(=O)N)(C)C)[C@H]([C@]3(C)CC(=O)N)CCC(=O)N)C)[C@H]([C@]2(C)CC(=O)N)CCC(=O)N)C)[C@@H]1CC(=O)N)C)C)O'
p1327
aa(lp1328
S'-3676'
p1329
aS'DB00281'
p1330
aS'D00358'
p1331
aS'lidocaine'
p1332
aS'CCN(CC(=O)Nc1c(C)cccc1C)CC'
p1333
aa(lp1334
S'-3902'
p1335
aS'DB01006'
p1336
aS'D00964'
p1337
aS'letrozole'
p1338
aS'N#Cc1ccc(cc1)C(n1cncn1)c1ccc(cc1)C#N'
p1339
aa(lp1340
S'-3675'
p1341
aS'DB00780'
p1342
aS'""'
p1343
aS'phenelzine'
p1344
aS'NNCCc1ccccc1'
p1345
aa(lp1346
S'-3672'
p1347
aS'DB01050'
p1348
aS'D00126'
p1349
aS'ibuprofen'
p1350
aS'CC(Cc1ccc(cc1)C(C(=O)O)C)C'
p1351
aa(lp1352
S'-4058'
p1353
aS'DB00454'
p1354
aS'""'
p1355
aS'meperidine'
p1356
aS'CCOC(=O)C1(CCN(CC1)C)c1ccccc1'
p1357
aa(lp1358
S'-4057'
p1359
aS'DB04843'
p1360
aS'""'
p1361
aS'Mepenzolate'
p1362
aS'O=C(C(c1ccccc1)(c1ccccc1)O)OC1CCC[N+](C1)(C)C'
p1363
aa(lp1364
S'-4054'
p1365
aS'DB01043'
p1366
aS'""'
p1367
aS'memantine'
p1368
aS'CC12CC3CC(C1)(C)CC(C2)(C3)N'
p1369
aa(lp1370
S'-4053'
p1371
aS'DB01042'
p1372
aS'D00369'
p1373
aS'melphalan'
p1374
aS'ClCCN(c1ccc(cc1)C[C@@H](C(=O)O)N)CCCl'
p1375
aa(lp1376
S'-4052'
p1377
aS'DB00814'
p1378
aS'D00969'
p1379
aS'meloxicam'
p1380
aS'Cc1cnc(s1)NC(=O)C1=C(O)c2ccccc2S(=O)(=O)N1C'
p1381
aa(lp1382
S'-3877'
p1383
aS'DB00709'
p1384
aS'D00353'
p1385
aS'lamivudine'
p1386
aS'Nc1ccn(c(=O)n1)[C@@H]1CS[C@@H](O1)CO'
p1387
aa(lp1388
S'-91270'
p1389
aS'DB00691'
p1390
aS'""'
p1391
aS'moexipril'
p1392
aS'CCOC(=O)[C@@H](N[C@H](C(=O)N1Cc2cc(OC)c(cc2C[C@H]1C(=O)O)OC)C)CCc1ccccc1'
p1393
aa(lp1394
S'-3878'
p1395
aS'DB00555'
p1396
aS'D00354'
p1397
aS'lamotrigine'
p1398
aS'Nc1nnc(c(n1)N)c1cccc(c1Cl)Cl'
p1399
aa(lp1400
S'-4121'
p1401
aS'DB00232'
p1402
aS'D00656'
p1403
aS'methyclothiazide'
p1404
aS'ClCC1Nc2cc(Cl)c(cc2S(=O)(=O)N1C)S(=O)(=O)N'
p1405
aa(lp1406
S'-65027'
p1407
aS'DB00932'
p1408
aS'""'
p1409
aS'tipranavir'
p1410
aS'CCC[C@@]1(CCc2ccccc2)CC(=O)C(=C(O1)O)[C@@H](c1cccc(c1)NS(=O)(=O)c1ccc(cn1)C(F)(F)F)CC'
p1411
aa(lp1412
S'-3494'
p1413
aS'DB00986'
p1414
aS'D00540'
p1415
aS'glycopyrrolate'
p1416
aS'O=C(C(c1ccccc1)(C1CCCC1)O)OC1CC[N+](C1)(C)C'
p1417
aa(lp1418
S'-5311048'
p1419
aS'DB00515'
p1420
aS'D00275'
p1421
aS'cisplatin'
p1422
aS'N[Pt](Cl)(Cl)N'
p1423
aa(lp1424
S'-4409'
p1425
aS'DB00461'
p1426
aS'D00425'
p1427
aS'nabumetone'
p1428
aS'COc1ccc2c(c1)ccc(c2)CCC(=O)C'
p1429
aa(lp1430
S'-16362'
p1431
aS'DB01100'
p1432
aS'D00560'
p1433
aS'pimozide'
p1434
aS'Fc1ccc(cc1)C(c1ccc(cc1)F)CCCN1CCC(CC1)n1c(=O)[nH]c2c1cccc2'
p1435
aa(lp1436
S'-3869'
p1437
aS'DB00598'
p1438
aS'""'
p1439
aS'labetalol'
p1440
aS'CC(CCc1ccccc1)NCC(c1ccc(c(c1)C(=O)N)O)O'
p1441
aa(lp1442
S'-4943'
p1443
aS'DB00818'
p1444
aS'D00549'
p1445
aS'propofol'
p1446
aS'CC(c1cccc(c1O)C(C)C)C'
p1447
aa(lp1448
S'-4946'
p1449
aS'DB00571'
p1450
aS'""'
p1451
aS'propranolol'
p1452
aS'OC(COc1cccc2c1cccc2)CNC(C)C'
p1453
aa(lp1454
S'-5090'
p1455
aS'DB00533'
p1456
aS''
aS'Rofecoxib'
p1457
aS'O=C1OCC(=C1c1ccccc1)c1ccc(cc1)S(=O)(=O)C'
p1458
aa(lp1459
S'-5525'
p1460
aS'DB00519'
p1461
aS'D00383'
p1462
aS'trandolapril'
p1463
aS'CCOC(=O)[C@@H](N[C@H](C(=O)N1[C@H]2CCCC[C@@H]2C[C@H]1C(=O)O)C)CCc1ccccc1'
p1464
aa(lp1465
S'-5526'
p1466
aS'DB00302'
p1467
aS'D01136'
p1468
aS'tranexamic acid'
p1469
aS'NC[C@@H]1CC[C@H](CC1)C(=O)O'
p1470
aa(lp1471
S'-130881'
p1472
aS'DB00275'
p1473
aS'D01204'
p1474
aS'Olmesartan'
p1475
aS'CCCc1nc(c(n1Cc1ccc(cc1)c1ccccc1c1nnn[nH]1)C(=O)O)C(O)(C)C'
p1476
aa(lp1477
S'-9433'
p1478
aS'DB01223'
p1479
aS'D00227'
p1480
aS'aminophylline'
p1481
aS'Cn1c(=O)n(C)c2c(c1=O)[nH]cn2.Cn1c(=O)n(C)c2c(c1=O)[nH]cn2.NCCN'
p1482
aa(lp1483
S'-93860'
p1484
aS'DB00188'
p1485
aS'""'
p1486
aS'bortezomib'
p1487
aS'CC(C[C@@H](B(O)O)NC(=O)[C@@H](NC(=O)c1cnccn1)Cc1ccccc1)C'
p1488
aa(lp1489
S'-3278'
p1490
aS'DB00903'
p1491
aS'D00313'
p1492
aS'ethacrynic acid'
p1493
aS'CCC(=C)C(=O)c1ccc(c(c1Cl)Cl)OCC(=O)O'
p1494
aa(lp1495
S'-3279'
p1496
aS'DB00330'
p1497
aS'""'
p1498
aS'ethambutol'
p1499
aS'CC[C@H](NCCN[C@H](CO)CC)CO'
p1500
aa(lp1501
S'-72057'
p1502
aS'DB06703'
p1503
aS'""'
p1504
aS'gadobutrol'
p1505
aS'OCC(C(N1CCN(CCN(CCN(CC1)CC(=O)[O-])CC(=O)[O-])CC(=O)[O-])CO)O.[Gd]'
p1506
aa(lp1507
S'-72054'
p1508
aS'DB00496'
p1509
aS'D01699'
p1510
aS'darifenacin'
p1511
aS'NC(=O)C(c1ccccc1)(c1ccccc1)[C@@H]1CCN(C1)CCc1ccc2c(c1)CCO2'
p1512
aa(lp1513
S'-5412'
p1514
aS'DB00759'
p1515
aS'D00201'
p1516
aS'tetracycline'
p1517
aS'CN([C@@H]1C(=C(C(=O)N)C(=O)[C@@]2([C@H]1C[C@H]1C(=C2O)C(=O)c2c([C@@]1(C)O)cccc2O)O)O)C'
p1518
aa(lp1519
S'-4614'
p1520
aS'DB00991'
p1521
aS'D00463'
p1522
aS'oxaprozin'
p1523
aS'OC(=O)CCc1nc(c(o1)c1ccccc1)c1ccccc1'
p1524
aa(lp1525
S'-4616'
p1526
aS'DB00842'
p1527
aS'D00464'
p1528
aS'oxazepam'
p1529
aS'O=C1Nc2ccc(cc2C(=NC1O)c1ccccc1)Cl'
p1530
aa(lp1531
S'-2477'
p1532
aS'DB00490'
p1533
aS'""'
p1534
aS'buspirone'
p1535
aS'O=C1CC2(CCCC2)CC(=O)N1CCCCN1CCN(CC1)c1ncccn1'
p1536
aa(lp1537
S'-2476'
p1538
aS'DB00921'
p1539
aS'""'
p1540
aS'buprenorphine'
p1541
aS'CO[C@]12CC[C@]3(C[C@@H]1C(C(C)(C)C)(O)C)[C@@]14[C@H]2Oc2c4c(C[C@H]3N(CC1)CC1CC1)ccc2O'
p1542
aa(lp1543
S'-2471'
p1544
aS'DB00887'
p1545
aS'D00247'
p1546
aS'bumetanide'
p1547
aS'CCCCNc1cc(cc(c1Oc1ccccc1)S(=O)(=O)N)C(=O)O'
p1548
aa(lp1549
S'-2274'
p1550
aS'DB00355'
p1551
aS'D00240'
p1552
aS'aztreonam'
p1553
aS'C[C@H]1[C@H](NC(=O)/C(=N\\OC(C(=O)O)(C)C)/c2csc(n2)[NH2+])C(=O)N1S(=O)(=O)[O-]'
p1554
aa(lp1555
S'-1065'
p1556
aS'DB00908'
p1557
aS'""'
p1558
aS'quinidine'
p1559
aS'C=C[C@H]1CN2CC[C@H]1C[C@@H]2[C@H](c1ccnc2c1cc(OC)cc2)O'
p1560
aa(lp1561
S'-2519'
p1562
aS'DB00201'
p1563
aS'D00528'
p1564
aS'caffeine'
p1565
aS'Cn1cnc2c1c(=O)n(C)c(=O)n2C'
p1566
aa(lp1567
S'-3928'
p1568
aS'DB01627'
p1569
aS'D00223'
p1570
aS'lincomycin'
p1571
aS'CCC[C@H]1CN(C(C1)C(=O)N[C@@H]([C@H]1O[C@H](SC)[C@@H]([C@H]([C@H]1O)O)O)[C@H](O)C)C'
p1572
aa(lp1573
S'-4724'
p1574
aS'DB01359'
p1575
aS'""'
p1576
aS'penbutolol'
p1577
aS'O[C@H](COc1ccccc1C1CCCC1)CNC(C)(C)C'
p1578
aa(lp1579
S'-4723'
p1580
aS'DB01230'
p1581
aS''
aS'Pemoline'
p1582
aS'O=C1N=C(OC1c1ccccc1)N'
p1583
aa(lp1584
S'-3019'
p1585
aS'DB01119'
p1586
aS'D00294'
p1587
aS'diazoxide'
p1588
aS'Clc1ccc2c(c1)S(=O)(=O)N=C(N2)C'
p1589
aa(lp1590
S'-937'
p1591
aS'DB00627'
p1592
aS'D00049'
p1593
aS'Niacin'
p1594
aS'OC(=O)c1cccnc1'
p1595
aa(lp1596
S'-3016'
p1597
aS'DB00829'
p1598
aS'D00293'
p1599
aS'diazepam'
p1600
aS'Clc1ccc2c(c1)C(=NCC(=O)N2C)c1ccccc1'
p1601
aa(lp1602
S'-122316'
p1603
aS'DB01367'
p1604
aS'D02562'
p1605
aS'Rasagiline'
p1606
aS'C#CCN[C@@H]1CCc2c1cccc2'
p1607
aa(lp1608
S'-2609'
p1609
aS'DB00833'
p1610
aS'D00256'
p1611
aS'cefaclor'
p1612
aS'N[C@H](c1ccccc1)C(=O)N[C@@H]1C(=O)N2[C@@H]1SCC(=C2C(=O)O)Cl'
p1613
aa(lp1614
S'-5071'
p1615
aS'DB00478'
p1616
aS'D08483'
p1617
aS'rimantadine'
p1618
aS'CC(C12CC3CC(C2)CC(C1)C3)N'
p1619
aa(lp1620
S'-3702'
p1621
aS'DB00808'
p1622
aS'D00345'
p1623
aS'indapamide'
p1624
aS'CC1Cc2c(N1NC(=O)c1ccc(c(c1)S(=O)(=O)N)Cl)cccc2'
p1625
aa(lp1626
S'-150310'
p1627
aS'DB00700'
p1628
aS'D01115'
p1629
aS'eplerenone'
p1630
aS'COC(=O)[C@@H]1CC2=CC(=O)CC[C@@]2([C@@]23[C@@H]1[C@@H]1CC[C@]4([C@@]1(C)C[C@@H]3O2)CCC(=O)O4)C'
p1631
aa(lp1632
S'-150311'
p1633
aS'DB00973'
p1634
aS'D01966'
p1635
aS'ezetimibe'
p1636
aS'Oc1ccc(cc1)[C@@H]1[C@@H](CC[C@@H](c2ccc(cc2)F)O)C(=O)N1c1ccc(cc1)F'
p1637
aa(lp1638
S'-4436'
p1639
aS'DB06711'
p1640
aS'D08253'
p1641
aS'naphazoline'
p1642
aS'C1CN=C(N1)Cc1cccc2c1cccc2'
p1643
aa(lp1644
S'-4100'
p1645
aS'DB00703'
p1646
aS'D00655'
p1647
aS'methazolamide'
p1648
aS'CC(=O)/N=c/1\\sc(nn1C)S(=O)(=O)N'
p1649
aa(lp1650
S'-4547'
p1651
aS'DB00912'
p1652
aS'D00594'
p1653
aS'repaglinide'
p1654
aS'CCOc1cc(ccc1C(=O)O)CC(=O)N[C@H](c1ccccc1N1CCCCC1)CC(C)C'
p1655
aa(lp1656
S'-3648'
p1657
aS'DB00327'
p1658
aS'""'
p1659
aS'hydromorphone'
p1660
aS'O=C1CC[C@@H]2[C@@]34[C@H]1Oc1c4c(C[C@H]2N(CC3)C)ccc1O'
p1661
aa(lp1662
S'-4543'
p1663
aS'DB00540'
p1664
aS'""'
p1665
aS'nortriptyline'
p1666
aS'CNCC/C=C/1\\c2ccccc2CCc2c1cccc2'
p1667
aa(lp1668
S'-4542'
p1669
aS'DB00367'
p1670
aS'D00950'
p1671
aS'levonorgestrel'
p1672
aS'C#C[C@]1(O)CC[C@@H]2[C@]1(CC)CC[C@H]1[C@H]2CCC2=CC(=O)CC[C@H]12'
p1673
aa(lp1674
S'-3647'
p1675
aS'DB00774'
p1676
aS'D00654'
p1677
aS'hydroflumethiazide'
p1678
aS'FC(c1cc2NCNS(=O)(=O)c2cc1S(=O)(=O)N)(F)F'
p1679
aa(lp1680
S'-60198'
p1681
aS'DB00990'
p1682
aS'D00963'
p1683
aS'exemestane'
p1684
aS'O=C1C=C[C@]2(C(=C1)C(=C)C[C@@H]1[C@@H]2CC[C@]2([C@H]1CCC2=O)C)C'
p1685
aa(lp1686
S'-4043'
p1687
aS'DB00253'
p1688
aS'D02289'
p1689
aS'Medrysone'
p1690
aS'O=C1CC[C@]2(C(=C1)[C@@H](C)C[C@@H]1[C@@H]2[C@@H](O)C[C@]2([C@H]1CC[C@@H]2C(=O)C)C)C'
p1691
aa(lp1692
S'-4044'
p1693
aS'DB00784'
p1694
aS'D00151'
p1695
aS'mefenamic acid'
p1696
aS'OC(=O)c1ccccc1Nc1cccc(c1C)C'
p1697
aa(lp1698
S'-4046'
p1699
aS'DB00358'
p1700
aS'D04895'
p1701
aS'mefloquine'
p1702
aS'OC(c1cc(nc2c1cccc2C(F)(F)F)C(F)(F)F)C1CCCCN1'
p1703
aa(lp1704
S'-3488'
p1705
aS'DB01016'
p1706
aS'D00336'
p1707
aS'Glyburide'
p1708
aS'COc1ccc(cc1C(=O)NCCc1ccc(cc1)S(=O)(=O)NC(=O)NC1CCCCC1)Cl'
p1709
aa(lp1710
S'-2720'
p1711
aS'DB00880'
p1712
aS'D00519'
p1713
aS'chlorothiazide'
p1714
aS'Clc1cc2NC=NS(=O)(=O)c2cc1S(=O)(=O)N'
p1715
aa(lp1716
S'-2726'
p1717
aS'DB00477'
p1718
aS'D00270'
p1719
aS'chlorpromazine'
p1720
aS'CN(CCCN1c2ccccc2Sc2c1cc(Cl)cc2)C'
p1721
aa(lp1722
S'-4138'
p1723
aS'DB00968'
p1724
aS'D08205'
p1725
aS'methyldopa'
p1726
aS'OC(=O)[C@](Cc1ccc(c(c1)O)O)(N)C'
p1727
aa(lp1728
S'-2283'
p1729
aS'DB00626'
p1730
aS'D00128'
p1731
aS'bacitracin'
p1732
aS'NCCC[C@H]1NC(=O)[C@H](CCCCNC(=O)[C@H](CC(=O)N)NC(=O)[C@H](NC(=O)[C@@H](NC(=O)[C@H](NC(=O)[C@@H](NC1=O)[C@H](CC)C)Cc1ccccc1)Cc1nc[nH]c1)CC(=O)O)NC(=O)[C@H]([C@H](CC)C)NC(=O)[C@H](NC(=O)[C@@H](NC(=O)[C@@H]1CSC(=N1)[C@H]([C@H](CC)C)N)CC(C)C)CCC(=O)O'
p1733
aa(lp1734
S'-2284'
p1735
aS'DB00181'
p1736
aS'D00241'
p1737
aS'baclofen'
p1738
aS'NCC(c1ccc(cc1)Cl)CC(=O)O'
p1739
aa(lp1740
S'-5556'
p1741
aS'DB00897'
p1742
aS'D00387'
p1743
aS'triazolam'
p1744
aS'Clc1ccc2c(c1)C(=NCc1n2c(C)nn1)c1ccccc1Cl'
p1745
aa(lp1746
S'-5396'
p1747
aS'DB00444'
p1748
aS'D02698'
p1749
aS'teniposide'
p1750
aS'COc1cc(cc(c1O)OC)[C@H]1[C@H]2C(=O)OC[C@@H]2[C@@H](c2c1cc1OCOc1c2)O[C@@H]1O[C@@H]2COC(O[C@H]2[C@@H]([C@H]1O)O)c1cccs1'
p1751
aa(lp1752
S'-5394'
p1753
aS'DB00853'
p1754
aS'""'
p1755
aS'temozolomide'
p1756
aS'NC(=O)c1ncn2c1nnn(c2=O)C'
p1757
aa(lp1758
S'-5391'
p1759
aS'DB00231'
p1760
aS'D00370'
p1761
aS'temazepam'
p1762
aS'Clc1ccc2c(c1)C(=NC(C(=O)N2C)O)c1ccccc1'
p1763
aa(lp1764
S'-5311297'
p1765
aS'DB00471'
p1766
aS'""'
p1767
aS'montelukast'
p1768
aS'OC(=O)CC1(CS[C@@H](c2cccc(c2)/C=C/c2ccc3c(n2)cc(cc3)Cl)CCc2ccccc2C(O)(C)C)CC1'
p1769
aa(lp1770
S'-34633'
p1771
aS'DB00680'
p1772
aS'D05077'
p1773
aS'moricizine'
p1774
aS'CCOC(=O)Nc1ccc2c(c1)N(C(=O)CCN1CCOCC1)c1c(S2)cccc1'
p1775
aa(lp1776
S'-5775'
p1777
aS'DB00692'
p1778
aS'""'
p1779
aS'phentolamine'
p1780
aS'Cc1ccc(cc1)N(c1cccc(c1)O)CC1=NCCN1'
p1781
aa(lp1782
S'-3241'
p1783
aS'DB00751'
p1784
aS'D01713'
p1785
aS'epinastine'
p1786
aS'NC1=NCC2N1c1ccccc1Cc1c2cccc1'
p1787
aa(lp1788
S'-667490'
p1789
aS'DB01033'
p1790
aS'D04931'
p1791
aS'mercaptopurine'
p1792
aS'S=c1nc[nH]c2c1[nH]cn2'
p1793
aa(lp1794
S'-60835'
p1795
aS'DB00476'
p1796
aS'D01179'
p1797
aS'duloxetine'
p1798
aS'CNCC[C@@H](c1cccs1)Oc1cccc2c1cccc2'
p1799
aa(lp1800
S'-60831'
p1801
aS'DB01409'
p1802
aS'""'
p1803
aS'tiotropium'
p1804
aS'O=C(C(c1cccs1)(c1cccs1)O)OC1C[C@@H]2[C@H]3[C@@H]([C@H](C1)[N+]2(C)C)O3'
p1805
aa(lp1806
S'-4603'
p1807
aS'DB00198'
p1808
aS'D00900'
p1809
aS'oseltamivir'
p1810
aS'CCOC(=O)C1=C[C@H]([C@@H]([C@H](C1)N)NC(=O)C)OC(CC)CC'
p1811
aa(lp1812
S'-4601'
p1813
aS'DB01173'
p1814
aS'""'
p1815
aS'orphenadrine'
p1816
aS'CN(CCOC(c1ccccc1C)c1ccccc1)C'
p1817
aa(lp1818
S'-4607'
p1819
aS'DB00713'
p1820
aS'""'
p1821
aS'oxacillin'
p1822
aS'OC(=O)[C@@H]1N2C(=O)[C@H]([C@H]2SC1(C)C)NC(=O)c1c(C)onc1c1ccccc1'
p1823
aa(lp1824
S'-4609'
p1825
aS'DB00526'
p1826
aS'D01790'
p1827
aS'oxaliplatin'
p1828
aS'O=C1O[Pt]2(OC1=O)N[C@H]1[C@H](N2)CCCC1'
p1829
aa(lp1830
S'-2462'
p1831
aS'DB01222'
p1832
aS'D00246'
p1833
aS'budesonide'
p1834
aS'CCCC1O[C@H]2[C@](O1)(C(=O)CO)[C@@]1([C@@H](C2)[C@@H]2CCC3=CC(=O)C=C[C@@]3([C@H]2[C@H](C1)O)C)C'
p1835
aa(lp1836
S'-1349907'
p1837
aS'DB00763'
p1838
aS'D00401'
p1839
aS'methimazole'
p1840
aS'Cn1cc[nH]c1=S'
p1841
aa(lp1842
S'-838'
p1843
aS'DB00668'
p1844
aS'D00095'
p1845
aS'epinephrine'
p1846
aS'CNC[C@@H](c1ccc(c(c1)O)O)O'
p1847
aa(lp1848
S'-30623'
p1849
aS'DB00380'
p1850
aS'""'
p1851
aS'dexrazoxane'
p1852
aS'O=C1NC(=O)CN(C1)C[C@@H](N1CC(=O)NC(=O)C1)C'
p1853
aa(lp1854
S'-2266'
p1855
aS'DB00548'
p1856
aS'D03034'
p1857
aS'azelaic acid'
p1858
aS'OC(=O)CCCCCCCC(=O)O'
p1859
aa(lp1860
S'-2267'
p1861
aS'DB00972'
p1862
aS'""'
p1863
aS'azelastine'
p1864
aS'CN1CCCC(CC1)n1nc(Cc2ccc(cc2)Cl)c2c(c1=O)cccc2'
p1865
aa(lp1866
S'-2265'
p1867
aS'DB00993'
p1868
aS'D00238'
p1869
aS'azathioprine'
p1870
aS'Cn1cnc(c1Sc1ncnc2c1[nH]cn2)[N+](=O)[O-]'
p1871
aa(lp1872
S'-3393'
p1873
aS'DB00690'
p1874
aS'D00329'
p1875
aS'flurazepam'
p1876
aS'CCN(CCN1C(=O)CN=C(c2c1ccc(c2)Cl)c1ccccc1F)CC'
p1877
aa(lp1878
S'-3392'
p1879
aS'DB00846'
p1880
aS'D00328'
p1881
aS'Flurandrenolide'
p1882
aS'OCC(=O)[C@@]12OC(O[C@@H]1C[C@@H]1[C@]2(C)C[C@H](O)[C@H]2[C@H]1C[C@@H](C1=CC(=O)CC[C@]21C)F)(C)C'
p1883
aa(lp1884
S'-3394'
p1885
aS'DB00712'
p1886
aS'D00330'
p1887
aS'flurbiprofen'
p1888
aS'OC(=O)C(c1ccc(c(c1)F)c1ccccc1)C'
p1889
aa(lp1890
S'-3397'
p1891
aS'DB00499'
p1892
aS'D00586'
p1893
aS'flutamide'
p1894
aS'O=C(C(C)C)Nc1ccc(c(c1)C(F)(F)F)[N+](=O)[O-]'
p1895
aa(lp1896
S'-2269'
p1897
aS'DB00207'
p1898
aS'""'
p1899
aS'azithromycin'
p1900
aS'CC[C@H]1OC(=O)[C@H](C)[C@@H](O[C@@H]2O[C@@H](C)[C@@H]([C@](C2)(C)OC)O)[C@H](C)[C@@H](O[C@@H]2O[C@H](C)C[C@@H]([C@H]2O)N(C)C)[C@](C[C@H](CN([C@@H]([C@H]([C@]1(C)O)O)C)C)C)(C)O'
p1901
aa(lp1902
S'-41781'
p1903
aS'DB00214'
p1904
aS'D00382'
p1905
aS'torasemide'
p1906
aS'CC(NC(=O)NS(=O)(=O)c1cnccc1Nc1cccc(c1)C)C'
p1907
aa(lp1908
S'-4739'
p1909
aS'DB00219'
p1910
aS'""'
p1911
aS'Oxyphenonium'
p1912
aS'CC[N+](CCOC(=O)C(c1ccccc1)(C1CCCCC1)O)(CC)C'
p1913
aa(lp1914
S'-4736'
p1915
aS'DB00652'
p1916
aS'D00498'
p1917
aS'pentazocine'
p1918
aS'CC(=CCN1CC[C@@]2([C@H]([C@H]1Cc1c2cc(cc1)O)C)C)C'
p1919
aa(lp1920
S'-4737'
p1921
aS'DB00312'
p1922
aS'D00499'
p1923
aS'pentobarbital'
p1924
aS'CCCC(C1(CC)C(=O)NC(=O)NC1=O)C'
p1925
aa(lp1926
S'-60696'
p1927
aS'DB00728'
p1928
aS'D00765'
p1929
aS'rocuronium'
p1930
aS'C=CC[N+]1(CCCC1)[C@H]1C[C@@H]2[C@]([C@H]1OC(=O)C)(C)CC[C@H]1[C@H]2CC[C@@H]2[C@]1(C)C[C@@H]([C@H](C2)O)N1CCOCC1'
p1931
aa(lp1932
S'-4730'
p1933
aS'DB00417'
p1934
aS'D05411'
p1935
aS'penicillin v'
p1936
aS'O=C(N[C@@H]1C(=O)N2[C@@H]1SC([C@@H]2C(=O)O)(C)C)COc1ccccc1'
p1937
aa(lp1938
S'-96312'
p1939
aS'DB01280'
p1940
aS'D05134'
p1941
aS'nelarabine'
p1942
aS'OC[C@H]1O[C@H]([C@H]([C@@H]1O)O)n1cnc2c1nc(N)nc2OC'
p1943
aa(lp1944
S'-3085017'
p1945
aS'DB00658'
p1946
aS'D01983'
p1947
aS'sevelamer'
p1948
aS'ClCC1CO1.C=CCN'
p1949
aa(lp1950
S'-2673'
p1951
aS'DB01333'
p1952
aS'D00264'
p1953
aS'Cefradine'
p1954
aS'O=C([C@@H](C1=CCC=CC1)N)N[C@@H]1C(=O)N2[C@@H]1SCC(=C2C(=O)O)C'
p1955
aa(lp1956
S'-2675'
p1957
aS'DB00671'
p1958
aS'D00258'
p1959
aS'cefixime'
p1960
aS'Nc1nc(cs1)/C(=N/OCC(=O)O)/C(=O)N[C@H]1[C@H]2SCC(=C(N2C1=O)C(=O)O)C=C'
p1961
aa(lp1962
S'-2676'
p1963
aS'DB00439'
p1964
aS''
aS'Cerivastatin'
p1965
aS'COCc1c(c2ccc(cc2)F)c(/C=C/[C@H](C[C@H](CC(=O)O)O)O)c(nc1C(C)C)C(C)C'
p1966
aa(lp1967
S'-2678'
p1968
aS'DB00341'
p1969
aS'""'
p1970
aS'cetirizine'
p1971
aS'OC(=O)COCCN1CCN(CC1)C(c1ccc(cc1)Cl)c1ccccc1'
p1972
aa(lp1973
S'-3730'
p1974
aS'DB01362'
p1975
aS'""'
p1976
aS'iohexol'
p1977
aS'OCC(CN(c1c(I)c(C(=O)NCC(CO)O)c(c(c1I)C(=O)NCC(CO)O)I)C(=O)C)O'
p1978
aa(lp1979
S'-232'
p1980
aS'DB00125'
p1981
aS'D02982'
p1982
aS'l-arginine'
p1983
aS'NC(=N)NCCC[C@@H](C(=O)O)N'
p1984
aa(lp1985
S'-3657'
p1986
aS'DB01005'
p1987
aS'D00341'
p1988
aS'hydroxyurea'
p1989
aS'NC(=O)NO'
p1990
aa(lp1991
S'-3652'
p1992
aS'DB01611'
p1993
aS'D08050'
p1994
aS'hydroxychloroquine'
p1995
aS'OCCN(CCCC(Nc1ccnc2c1ccc(c2)Cl)C)CC'
p1996
aa(lp1997
S'-3658'
p1998
aS'DB00557'
p1999
aS'""'
p2000
aS'hydroxyzine'
p2001
aS'OCCOCCN1CCN(CC1)C(c1ccc(cc1)Cl)c1ccccc1'
p2002
aa(lp2003
S'-2708'
p2004
aS'DB00291'
p2005
aS'D00266'
p2006
aS'chlorambucil'
p2007
aS'ClCCN(c1ccc(cc1)CCCC(=O)O)CCCl'
p2008
aa(lp2009
S'-581'
p2010
aS'DB06151'
p2011
aS'D00221'
p2012
aS'Acetylcysteine'
p2013
aS'SC[C@@H](C(=O)O)NC(=O)C'
p2014
aa(lp2015
S'-28112'
p2016
aS'DB01356'
p2017
aS'""'
p2018
aS'lithium'
p2019
aS'[Li+]'
p2020
aa(lp2021
S'-2818'
p2022
aS'DB00363'
p2023
aS'D00283'
p2024
aS'clozapine'
p2025
aS'CN1CCN(CC1)C1=Nc2cc(Cl)ccc2Nc2c1cccc2'
p2026
aa(lp2027
S'-68740'
p2028
aS'DB00399'
p2029
aS'D01968'
p2030
aS'Zoledronate'
p2031
aS'OP(=O)(C(P(=O)(O)O)(Cn1cncc1)O)O'
p2032
aa(lp2033
S'-4091'
p2034
aS'DB00331'
p2035
aS'D04966'
p2036
aS'metformin'
p2037
aS'CN(C(=N)NC(=N)N)C'
p2038
aa(lp2039
S'-4095'
p2040
aS'DB00333'
p2041
aS'""'
p2042
aS'methadone'
p2043
aS'CCC(=O)C(c1ccccc1)(c1ccccc1)CC(N(C)C)C'
p2044
aa(lp2045
S'-5546'
p2046
aS'DB00384'
p2047
aS'D00386'
p2048
aS'triamterene'
p2049
aS'Nc1nc(N)c2c(n1)nc(c(n2)c1ccccc1)N'
p2050
aa(lp2051
S'-5544'
p2052
aS'DB00620'
p2053
aS'D00385'
p2054
aS'triamcinolone'
p2055
aS'OCC(=O)[C@@]1(O)[C@H](O)C[C@@H]2[C@]1(C)C[C@H](O)[C@]1([C@H]2CCC2=CC(=O)C=C[C@]12C)F'
p2056
aa(lp2057
S'-40976'
p2058
aS'DB00294'
p2059
aS'""'
p2060
aS'Etonogestrel'
p2061
aS'C#C[C@]1(O)CC[C@@H]2[C@]1(CC)CC(=C)[C@H]1[C@H]2CCC2=CC(=O)CC[C@H]12'
p2062
aa(lp2063
S'-4197'
p2064
aS'DB00235'
p2065
aS'D00417'
p2066
aS'milrinone'
p2067
aS'N#Cc1cc(c2ccncc2)c([nH]c1=O)C'
p2068
aa(lp2069
S'-4893'
p2070
aS'DB00457'
p2071
aS'""'
p2072
aS'prazosin'
p2073
aS'COc1cc2nc(nc(c2cc1OC)N)N1CCN(CC1)C(=O)c1ccco1'
p2074
aa(lp2075
S'-4891'
p2076
aS'DB01058'
p2077
aS'D00471'
p2078
aS'praziquantel'
p2079
aS'O=C(N1CC(=O)N2C(C1)c1ccccc1CC2)C1CCCCC1'
p2080
aa(lp2081
S'-31477'
p2082
aS'DB01214'
p2083
aS'D02374'
p2084
aS'metipranolol'
p2085
aS'OC(COc1cc(C)c(c(c1C)C)OC(=O)C)CNC(C)C'
p2086
aa(lp2087
S'-16231'
p2088
aS'DB00594'
p2089
aS'""'
p2090
aS'amiloride'
p2091
aS'NC(=NC(=O)c1nc(Cl)c(nc1N)N)N'
p2092
aa(lp2093
S'-4894'
p2094
aS'DB00860'
p2095
aS'D00472'
p2096
aS'prednisolone'
p2097
aS'OCC(=O)[C@@]1(O)CC[C@@H]2[C@]1(C)C[C@H](O)[C@H]1[C@H]2CCC2=CC(=O)C=C[C@]12C'
p2098
aa(lp2099
S'-2381'
p2100
aS'DB00810'
p2101
aS'D00779'
p2102
aS'biperiden'
p2103
aS'OC(C1CC2CC1C=C2)(c1ccccc1)CCN1CCCCC1'
p2104
aa(lp2105
S'-3261'
p2106
aS'DB01215'
p2107
aS'D00311'
p2108
aS'estazolam'
p2109
aS'Clc1ccc2c(c1)C(=NCc1n2cnn1)c1ccccc1'
p2110
aa(lp2111
S'-3251'
p2112
aS'DB00696'
p2113
aS'""'
p2114
aS'ergotamine'
p2115
aS'O=C([C@H]1CN(C)[C@H]2C(=C1)c1cccc3c1c(C2)c[nH]3)N[C@]1(C)O[C@@]2(N(C1=O)[C@@H](Cc1ccccc1)C(=O)N1[C@H]2CCC1)O'
p2116
aa(lp2117
S'-3255'
p2118
aS'DB00199'
p2119
aS'D00140'
p2120
aS'erythromycin'
p2121
aS'CC[C@H]1OC(=O)[C@H](C)[C@@H](O[C@@H]2O[C@@H](C)[C@@H]([C@](C2)(C)OC)O)[C@H](C)[C@@H](O[C@@H]2O[C@H](C)C[C@@H]([C@H]2O)N(C)C)[C@](C[C@H](C(=O)[C@@H]([C@H]([C@]1(C)O)O)C)C)(C)O'
p2122
aa(lp2123
S'-50614'
p2124
aS'DB01330'
p2125
aS'D00260'
p2126
aS'cefotetan'
p2127
aS'CO[C@@]1(NC(=O)C2S/C(=C(\\C(=O)O)/C(=O)N)/S2)C(=O)N2[C@@H]1SCC(=C2C(=O)O)CSc1nnnn1C'
p2128
aa(lp2129
S'-4635'
p2130
aS'DB00497'
p2131
aS'D05312'
p2132
aS'oxycodone'
p2133
aS'COc1ccc2c3c1O[C@@H]1[C@@]43CCN([C@H](C2)[C@]4(O)CCC1=O)C'
p2134
aa(lp2135
S'-4634'
p2136
aS'DB01062'
p2137
aS'D00465'
p2138
aS'oxybutynin'
p2139
aS'CCN(CC#CCOC(=O)C(c1ccccc1)(C1CCCCC1)O)CC'
p2140
aa(lp2141
S'-4428'
p2142
aS'DB00704'
p2143
aS'D05113'
p2144
aS'naltrexone'
p2145
aS'O=C1CC[C@@]2([C@@]34[C@H]1Oc1c4c(C[C@H]2N(CC3)CC2CC2)ccc1O)O'
p2146
aa(lp2147
S'-5282226'
p2148
aS'DB00287'
p2149
aS'D01964'
p2150
aS'travoprost'
p2151
aS'CC(OC(=O)CCC/C=C\\C[C@H]1[C@@H](O)C[C@H]([C@@H]1/C=C/[C@H](COc1cccc(c1)C(F)(F)F)O)O)C'
p2152
aa(lp2153
S'-54454'
p2154
aS'DB00641'
p2155
aS'D00434'
p2156
aS'simvastatin'
p2157
aS'CCC(C(=O)O[C@H]1C[C@@H](C)C=C2[C@H]1[C@@H](CC[C@@H]1C[C@@H](O)CC(=O)O1)[C@H](C=C2)C)(C)C'
p2158
aa(lp2159
S'-57469'
p2160
aS'DB00724'
p2161
aS'D02500'
p2162
aS'imiquimod'
p2163
aS'CC(Cn1cnc2c1c1ccccc1nc2N)C'
p2164
aa(lp2165
S'-3382'
p2166
aS'DB01047'
p2167
aS'D00325'
p2168
aS'fluocinonide'
p2169
aS'CC(=O)OCC(=O)[C@@]12OC(O[C@@H]1C[C@@H]1[C@]2(C)C[C@H](O)[C@]2([C@H]1C[C@@H](C1=CC(=O)C=C[C@]21C)F)F)(C)C'
p2170
aa(lp2171
S'-3381'
p2172
aS'DB00591'
p2173
aS'D01825'
p2174
aS'fluocinolone acetonide'
p2175
aS'OCC(=O)[C@@]12OC(O[C@@H]1C[C@@H]1[C@]2(C)C[C@H](O)[C@]2([C@H]1C[C@@H](C1=CC(=O)C=C[C@]21C)F)F)(C)C'
p2176
aa(lp2177
S'-3387'
p2178
aS'DB01185'
p2179
aS'D00327'
p2180
aS'fluoxymesterone'
p2181
aS'O=C1CC[C@]2(C(=C1)CC[C@@H]1[C@]2(F)[C@@H](O)C[C@]2([C@H]1CC[C@]2(C)O)C)C'
p2182
aa(lp2183
S'-3384'
p2184
aS'DB00324'
p2185
aS'D01367'
p2186
aS'fluorometholone'
p2187
aS'O=C1C=C[C@]2(C(=C1)[C@@H](C)C[C@@H]1[C@]2(F)[C@@H](O)C[C@]2([C@H]1CC[C@]2(O)C(=O)C)C)C'
p2188
aa(lp2189
S'-1046'
p2190
aS'DB00339'
p2191
aS'D00144'
p2192
aS'pyrazinamide'
p2193
aS'NC(=O)c1cnccn1'
p2194
aa(lp2195
S'-3739'
p2196
aS'DB04711'
p2197
aS'D01774'
p2198
aS'iodipamide'
p2199
aS'O=C(Nc1c(I)cc(c(c1I)C(=O)O)I)CCCCC(=O)Nc1c(I)cc(c(c1I)C(=O)O)I'
p2200
aa(lp2201
S'-56959'
p2202
aS'DB00243'
p2203
aS'""'
p2204
aS'ranolazine'
p2205
aS'COc1ccccc1OCC(CN1CCN(CC1)CC(=O)Nc1c(C)cccc1C)O'
p2206
aa(lp2207
S'-85'
p2208
aS'DB00583'
p2209
aS'D02176'
p2210
aS'L-Carnitine'
p2211
aS'O[C@@H](C[N+](C)(C)C)CC(=O)[O-]'
p2212
aa(lp2213
S'-3032'
p2214
aS'DB00586'
p2215
aS'""'
p2216
aS'diclofenac'
p2217
aS'OC(=O)Cc1ccccc1Nc1c(Cl)cccc1Cl'
p2218
aa(lp2219
S'-60753'
p2220
aS'DB00308'
p2221
aS'D00648'
p2222
aS'ibutilide'
p2223
aS'CCCCCCCN(CCCC(c1ccc(cc1)NS(=O)(=O)C)O)CC'
p2224
aa(lp2225
S'-60754'
p2226
aS'DB00225'
p2227
aS'D01645'
p2228
aS'gadodiamide'
p2229
aS'CNC(=O)CN(CC(=O)[O-])CCN(CC(=O)[O-])CCN(CC(=O)NC)CC(=O)[O-].O.[Gd+3]'
p2230
aa(lp2231
S'-2662'
p2232
aS'DB00482'
p2233
aS'D00567'
p2234
aS'celecoxib'
p2235
aS'Cc1ccc(cc1)c1cc(nn1c1ccc(cc1)S(=O)(=O)N)C(F)(F)F'
p2236
aa(lp2237
S'-2666'
p2238
aS'DB00567'
p2239
aS'D00263'
p2240
aS'cephalexin'
p2241
aS'N[C@H](c1ccccc1)C(=O)N[C@@H]1C(=O)N2[C@@H]1SCC(=C2C(=O)O)C'
p2242
aa(lp2243
S'-4419'
p2244
aS'DB00844'
p2245
aS'D08246'
p2246
aS'nalbuphine'
p2247
aS'O[C@H]1CC[C@@]2([C@@]34[C@H]1Oc1c4c(C[C@H]2N(CC3)CC2CCC2)ccc1O)O'
p2248
aa(lp2249
S'-6323497'
p2250
aS'DB01201'
p2251
aS'D00879'
p2252
aS'rifapentine'
p2253
aS'CO[C@H]1/C=C/O[C@@]2(C)Oc3c(C2=O)c2c(O)c(/C=N/N4CCN(CC4)C4CCCC4)c(c(c2c(c3C)O)O)NC(=O)/C(=C\\C=C\\[C@@H]([C@@H]([C@H]([C@H]([C@@H]([C@@H]([C@H]1C)OC(=O)C)C)O)C)O)C)/C'
p2254
aa(lp2255
S'-3724'
p2256
aS'DB01249'
p2257
aS'D01474'
p2258
aS'iodixanol'
p2259
aS'OCC(CNC(=O)c1c(I)c(N(C(=O)C)CC(CN(c2c(I)c(C(=O)NCC(CO)O)c(c(c2I)C(=O)NCC(CO)O)I)C(=O)C)O)c(c(c1I)C(=O)NCC(CO)O)I)O'
p2260
aa(lp2261
S'-54547'
p2262
aS'DB01416'
p2263
aS'""'
p2264
aS'cefpodoxime'
p2265
aS'CO/N=C(/c1csc(n1)N)\\C(=O)N[C@H]1[C@H]2SCC(=C(N2C1=O)C(=O)O)COC'
p2266
aa(lp2267
S'-2719'
p2268
aS'DB00608'
p2269
aS'D02366'
p2270
aS'chloroquine'
p2271
aS'CCN(CCCC(Nc1ccnc2c1ccc(c2)Cl)C)CC'
p2272
aa(lp2273
S'-2712'
p2274
aS'DB00475'
p2275
aS'D00267'
p2276
aS'chlordiazepoxide'
p2277
aS'CNC1=Nc2ccc(cc2C(=N(=O)C1)c1ccccc1)Cl'
p2278
aa(lp2279
S'-596'
p2280
aS'DB00987'
p2281
aS'D00168'
p2282
aS'Cytarabine'
p2283
aS'OC[C@H]1O[C@H]([C@H]([C@@H]1O)O)n1ccc(nc1=O)N'
p2284
aa(lp2285
S'-772'
p2286
aS'DB01109'
p2287
aS'""'
p2288
aS'heparin'
p2289
aS'OC[C@H]1O[C@H](O[C@@H]2[C@H](O[C@H]([C@@H]([C@H]2O)OS(=O)(=O)O)O[C@@H]2[C@@H](COS(=O)(=O)O)OC([C@@H]([C@H]2O)NC(=O)C)*)C(=O)O)[C@@H]([C@H]([C@@H]1O[C@@H]1O[C@@H](C(=O)O)[C@H]([C@@H]([C@H]1OS(=O)(=O)O)O)O*)OS(=O)(=O)O)NS(=O)(=O)O'
p2290
aa(lp2291
S'-3827'
p2292
aS'DB00920'
p2293
aS'D01332'
p2294
aS'ketotifen'
p2295
aS'CN1CCC(=C2c3ccccc3CC(=O)c3c2ccs3)CC1'
p2296
aa(lp2297
S'-3826'
p2298
aS'DB00465'
p2299
aS'""'
p2300
aS'ketorolac'
p2301
aS'OC(=O)C1CCn2c1ccc2C(=O)c1ccccc1'
p2302
aa(lp2303
S'-3825'
p2304
aS'DB01009'
p2305
aS'D00132'
p2306
aS'ketoprofen'
p2307
aS'OC(=O)C(c1cccc(c1)C(=O)c1ccccc1)C'
p2308
aa(lp2309
S'-3823'
p2310
aS'DB01026'
p2311
aS'D00351'
p2312
aS'ketoconazole'
p2313
aS'Clc1ccc(c(c1)Cl)C1(OCC(O1)COc1ccc(cc1)N1CCN(CC1)C(=O)C)Cn1cncc1'
p2314
aa(lp2315
S'-3821'
p2316
aS'DB01221'
p2317
aS'""'
p2318
aS'ketamine'
p2319
aS'CNC1(CCCCC1=O)c1ccccc1Cl'
p2320
aa(lp2321
S'-4140'
p2322
aS'DB00353'
p2323
aS'D00680'
p2324
aS'Methylergonovine'
p2325
aS'CC[C@H](NC(=O)[C@H]1CN(C)[C@H]2C(=C1)c1cccc3c1c(C2)c[nH]3)CO'
p2326
aa(lp2327
S'-2803'
p2328
aS'DB00575'
p2329
aS'D00281'
p2330
aS'clonidine'
p2331
aS'Clc1cccc(c1NC1=NCCN1)Cl'
p2332
aa(lp2333
S'-2806'
p2334
aS'DB00758'
p2335
aS'D00769'
p2336
aS'clopidogrel'
p2337
aS'COC(=O)[C@H](c1ccccc1Cl)N1CCc2c(C1)ccs2'
p2338
aa(lp2339
S'-62867'
p2340
aS'DB01621'
p2341
aS'D08385'
p2342
aS'pipotiazine'
p2343
aS'OCCC1CCN(CC1)CCCN1c2ccccc2Sc2c1cc(cc2)S(=O)(=O)N(C)C'
p2344
aa(lp2345
S'-4158'
p2346
aS'DB00422'
p2347
aS'D04999'
p2348
aS'methylphenidate'
p2349
aS'COC(=O)C(c1ccccc1)C1CCCCN1'
p2350
aa(lp2351
S'-4159'
p2352
aS'DB00959'
p2353
aS'D00407'
p2354
aS'methylprednisolone'
p2355
aS'OCC(=O)[C@@]1(O)CC[C@@H]2[C@]1(C)C[C@H](O)[C@H]1[C@H]2C[C@@H](C2=CC(=O)C=C[C@]12C)C'
p2356
aa(lp2357
S'-115237'
p2358
aS'DB00734'
p2359
aS'D00426'
p2360
aS'DB00734'
p2361
aS'Fc1ccc2c(c1)onc2C1CCN(CC1)CCc1c(C)nc2n(c1=O)CCCC2'
p2362
aa(lp2363
S'-13342'
p2364
aS'DB00570'
p2365
aS'""'
p2366
aS'vinblastine'
p2367
aS'COc1cc2N(C)[C@@H]3[C@@]4(c2cc1[C@]1(C[C@@H]2CN(CCc5c1[nH]c1c5cccc1)C[C@](C2)(O)CC)C(=O)OC)CCN1[C@H]4[C@@]([C@H]([C@]3(O)C(=O)OC)OC(=O)C)(CC)C=CC1'
p2368
aa(lp2369
S'-4259'
p2370
aS'DB00218'
p2371
aS'""'
p2372
aS'moxifloxacin'
p2373
aS'COc1c(N2C[C@@H]3[C@H](C2)CCCN3)c(F)cc2c1n(cc(c2=O)C(=O)O)C1CC1'
p2374
aa(lp2375
S'-4479097'
p2376
aS'DB00200'
p2377
aS'D01027'
p2378
aS'hydroxocobalamin'
p2379
aS'OC[C@H]1O[C@H]2[C@@H]([C@@H]1OP(=O)([O-])O[C@H](C)CNC(=O)CC[C@]1(C3=C(C4=[N]5[Co]67(n8cn2c2cc(C)c(cc82)C)(O)[N]2=C(C=C5C([C@@H]4CCC(=O)N)(C)C)[C@H]([C@](C2=C(C2=[N]7[C@]([C@H](N36)[C@@H]1CC(=O)N)(C)[C@@]([C@@H]2CCC(=O)N)(C)CC(=O)N)C)(C)CC(=O)N)CCC(=O)N)C)C)O'
p2380
aa(lp2381
S'-4086'
p2382
aS'DB00816'
p2383
aS'D00685'
p2384
aS'Orciprenaline'
p2385
aS'OC(c1cc(O)cc(c1)O)CNC(C)C'
p2386
aa(lp2387
S'-5578'
p2388
aS'DB00440'
p2389
aS'D00145'
p2390
aS'trimethoprim'
p2391
aS'COc1cc(Cc2cnc(nc2N)N)cc(c1OC)OC'
p2392
aa(lp2393
S'-5572'
p2394
aS'DB00376'
p2395
aS'""'
p2396
aS'trihexyphenidyl'
p2397
aS'OC(c1ccccc1)(C1CCCCC1)CCN1CCCCC1'
p2398
aa(lp2399
S'-5379'
p2400
aS'DB01044'
p2401
aS'""'
p2402
aS'gatifloxacin'
p2403
aS'COc1c(N2CCNC(C2)C)c(F)cc2c1n(cc(c2=O)C(=O)O)C1CC1'
p2404
aa(lp2405
S'-5376'
p2406
aS'DB00675'
p2407
aS'D00966'
p2408
aS'tamoxifen'
p2409
aS'CC/C(=C(\\c1ccccc1)/c1ccc(cc1)OCCN(C)C)/c1ccccc1'
p2410
aa(lp2411
S'-5596'
p2412
aS'DB00209'
p2413
aS'D01103'
p2414
aS'Trospium'
p2415
aS'O=C(C(c1ccccc1)(c1ccccc1)O)OC1CC2CCC(C1)[N+]12CCCC1'
p2416
aa(lp2417
S'-5591'
p2418
aS'DB00197'
p2419
aS''
aS'Troglitazone'
p2420
aS'O=C1NC(=O)C(S1)Cc1ccc(cc1)OCC1(C)CCc2c(O1)c(C)c(c(c2C)O)C'
p2421
aa(lp2422
S'-60815'
p2423
aS'DB00899'
p2424
aS'""'
p2425
aS'remifentanil'
p2426
aS'COC(=O)C1(CCN(CC1)CCC(=O)OC)N(c1ccccc1)C(=O)CC'
p2427
aa(lp2428
S'-4976'
p2429
aS'DB00344'
p2430
aS'""'
p2431
aS'protriptyline'
p2432
aS'CNCCCC1c2ccccc2C=Cc2c1cccc2'
p2433
aa(lp2434
S'-2443'
p2435
aS'DB01200'
p2436
aS'D03165'
p2437
aS'bromocriptine'
p2438
aS'CC(C[C@H]1C(=O)N2CCC[C@H]2[C@]2(N1C(=O)[C@@](O2)(NC(=O)[C@H]1CN(C)[C@H]2C(=C1)c1cccc3c1c(C2)c([nH]3)Br)C(C)C)O)C'
p2439
aa(lp2440
S'-5353894'
p2441
aS'DB00733'
p2442
aS'""'
p2443
aS'pralidoxime'
p2444
aS'O/N=C/c1cccc[n+]1C'
p2445
aa(lp2446
S'-5625'
p2447
aS'DB00705'
p2448
aS'""'
p2449
aS'delavirdine'
p2450
aS'CC(Nc1cccnc1N1CCN(CC1)C(=O)c1cc2c([nH]1)ccc(c2)NS(=O)(=O)C)C'
p2451
aa(lp2452
S'-4623'
p2453
aS'DB00239'
p2454
aS'D00885'
p2455
aS'oxiconazole'
p2456
aS'Clc1ccc(c(c1)Cl)CO/N=C(\\c1ccc(cc1Cl)Cl)/Cn1cncc1'
p2457
aa(lp2458
S'-2244'
p2459
aS'DB00945'
p2460
aS'D00109'
p2461
aS'Acetylsalicylic acid'
p2462
aS'CC(=O)Oc1ccccc1C(=O)O'
p2463
aa(lp2464
S'-47319'
p2465
aS'DB00732'
p2466
aS'""'
p2467
aS'atracurium'
p2468
aS'COc1cc2c(cc1OC)CC[N+](C2Cc1ccc(c(c1)OC)OC)(C)CCC(=O)OCCCCCOC(=O)CC[N+]1(C)CCc2c(C1Cc1ccc(c(c1)OC)OC)cc(c(c2)OC)OC'
p2469
aa(lp2470
S'-170361'
p2471
aS'DB01273'
p2472
aS'""'
p2473
aS'varenicline'
p2474
aS'N1C[C@@H]2C[C@H](C1)c1c2cc2c(c1)nccn2'
p2475
aa(lp2476
S'-3375'
p2477
aS'DB00663'
p2478
aS'D01464'
p2479
aS'Flumethasone Pivalate'
p2480
aS'O=C1C=C[C@]2(C(=C1)[C@@H](F)C[C@@H]1[C@]2(F)[C@@H](O)C[C@]2([C@H]1C[C@H]([C@]2(O)C(=O)COC(=O)C(C)(C)C)C)C)C'
p2481
aa(lp2482
S'-87177'
p2483
aS'DB00581'
p2484
aS'D00352'
p2485
aS'lactulose'
p2486
aS'OC[C@H]1O[C@]([C@H]([C@@H]1O[C@@H]1O[C@H](CO)[C@@H]([C@@H]([C@H]1O)O)O)O)(O)CO'
p2487
aa(lp2488
S'-37393'
p2489
aS'DB01218'
p2490
aS'""'
p2491
aS'halofantrine'
p2492
aS'CCCCN(CCC(c1cc2c(Cl)cc(cc2c2c1ccc(c2)C(F)(F)F)Cl)O)CCCC'
p2493
aa(lp2494
S'-41693'
p2495
aS'DB00708'
p2496
aS'D05938'
p2497
aS'sufentanil'
p2498
aS'COCC1(CCN(CC1)CCc1cccs1)N(c1ccccc1)C(=O)CC'
p2499
aa(lp2500
S'-5978'
p2501
aS'DB00541'
p2502
aS'""'
p2503
aS'vincristine'
p2504
aS'O=CN1c2cc(OC)c(cc2[C@]23[C@@H]1[C@@](O)(C(=O)OC)[C@H](OC(=O)C)[C@]1([C@@H]3N(CC2)CC=C1)CC)[C@]1(C[C@@H]2CN(CCc3c1[nH]c1c3cccc1)C[C@](C2)(O)CC)C(=O)OC'
p2505
aa(lp2506
S'-60787'
p2507
aS'DB01232'
p2508
aS'D00429'
p2509
aS'saquinavir'
p2510
aS'NC(=O)C[C@@H](C(=O)N[C@H]([C@@H](CN1CC2CCCCC2C[C@H]1C(=O)NC(C)(C)C)O)Cc1ccccc1)NC(=O)c1ccc2c(n1)cccc2'
p2511
aa(lp2512
S'-2656'
p2513
aS'DB01212'
p2514
aS'""'
p2515
aS'ceftriaxone'
p2516
aS'CO/N=C(/c1csc(n1)N)\\C(=O)N[C@@H]1C(=O)N2[C@@H]1SCC(=C2C(=O)O)CSc1nc(=O)c(=O)[nH]n1C'
p2517
aa(lp2518
S'-2650'
p2519
aS'DB00438'
p2520
aS'""'
p2521
aS'ceftazidime'
p2522
aS'O=C1[C@@H](NC(=O)/C(=N\\OC(C(=O)O)(C)C)/c2csc(n2)N)[C@@H]2N1C(=C(CS2)C[n+]1ccccc1)C(=O)[O-]'
p2523
aa(lp2524
S'-3759'
p2525
aS'DB01247'
p2526
aS'D02580'
p2527
aS'isocarboxazid'
p2528
aS'Cc1onc(c1)C(=O)NNCc1ccccc1'
p2529
aa(lp2530
S'-4594'
p2531
aS'DB00338'
p2532
aS'D00455'
p2533
aS'omeprazole'
p2534
aS'COc1ccc2c(c1)[nH]c(n2)S(=O)Cc1ncc(c(c1C)OC)C'
p2535
aa(lp2536
S'-3750'
p2537
aS'DB00762'
p2538
aS'D08086'
p2539
aS'irinotecan'
p2540
aS'CC[C@@]1(O)C(=O)OCc2c1cc1c3nc4ccc(cc4c(c3Cn1c2=O)CC)OC(=O)N1CCC(CC1)N1CCCCC1'
p2541
aa(lp2542
S'-65999'
p2543
aS'DB00966'
p2544
aS'D00627'
p2545
aS'telmisartan'
p2546
aS'CCCc1nc2c(n1Cc1ccc(cc1)c1ccccc1C(=O)O)cc(cc2C)c1nc2c(n1C)cccc2'
p2547
aa(lp2548
S'-5193'
p2549
aS'DB00418'
p2550
aS'D00430'
p2551
aS'secobarbital'
p2552
aS'CCCC(C1(CC=C)C(=O)NC(=O)NC1=O)C'
p2553
aa(lp2554
S'-157922'
p2555
aS'DB00992'
p2556
aS'""'
p2557
aS'Methyl aminolevulinate'
p2558
aS'NCC(=O)CCC(=O)OC'
p2559
aa(lp2560
S'-2951'
p2561
aS'DB01219'
p2562
aS'D02347'
p2563
aS'dantrolene'
p2564
aS'O=C1CN(C(=O)N1)/N=C/c1ccc(o1)c1ccc(cc1)[N+](=O)[O-]'
p2565
aa(lp2566
S'-3637'
p2567
aS'DB01275'
p2568
aS'D01302'
p2569
aS'hydralazine'
p2570
aS'NNc1nncc2c1cccc2'
p2571
aa(lp2572
S'-3639'
p2573
aS'DB00999'
p2574
aS'D00340'
p2575
aS'hydrochlorothiazide'
p2576
aS'Clc1cc2NCNS(=O)(=O)c2cc1S(=O)(=O)N'
p2577
aa(lp2578
S'-54374'
p2579
aS'DB00104'
p2580
aS'D00442'
p2581
aS'octreotide'
p2582
aS'NCCCC[C@@H]1NC(=O)[C@H](NC(=O)[C@H](Cc2ccccc2)NC(=O)[C@H](CSSC[C@H](NC(=O)[C@@H](NC1=O)C(O)C)C(=O)N[C@@H]([C@H](O)C)CO)NC(=O)[C@@H](Cc1ccccc1)N)Cc1c[nH]c2c1cccc2'
p2583
aa(lp2584
S'-2727'
p2585
aS'DB00672'
p2586
aS'D00271'
p2587
aS'chlorpropamide'
p2588
aS'CCCNC(=O)NS(=O)(=O)c1ccc(cc1)Cl'
p2589
aa(lp2590
S'-2725'
p2591
aS'DB01114'
p2592
aS'D07398'
p2593
aS'chlorpheniramine'
p2594
aS'CN(CCC(c1ccccn1)c1ccc(cc1)Cl)C'
p2595
aa(lp2596
S'-3767'
p2597
aS'DB00951'
p2598
aS'D00346'
p2599
aS'isoniazid'
p2600
aS'NNC(=O)c1ccncc1'
p2601
aa(lp2602
S'-4915'
p2603
aS'DB01168'
p2604
aS'D00478'
p2605
aS'procarbazine'
p2606
aS'CNNCc1ccc(cc1)C(=O)NC(C)C'
p2607
aa(lp2608
S'-5582'
p2609
aS'DB01157'
p2610
aS'D06238'
p2611
aS'trimetrexate'
p2612
aS'COc1cc(NCc2ccc3c(c2C)c(N)nc(n3)N)cc(c1OC)OC'
p2613
aa(lp2614
S'-4189'
p2615
aS'DB01110'
p2616
aS'D00882'
p2617
aS'miconazole'
p2618
aS'Clc1ccc(c(c1)Cl)COC(c1ccc(cc1Cl)Cl)Cn1cncc1'
p2619
aa(lp2620
S'-3958'
p2621
aS'DB00186'
p2622
aS'D00365'
p2623
aS'lorazepam'
p2624
aS'Clc1ccc2c(c1)C(=NC(C(=O)N2)O)c1ccccc1Cl'
p2625
aa(lp2626
S'-143'
p2627
aS'DB00650'
p2628
aS'D01211'
p2629
aS'leucovorin'
p2630
aS'O=CN1C(CNc2ccc(cc2)C(=O)N[C@@H](C(=O)O)CCC(=O)O)CNc2c1c(=O)nc([nH]2)N'
p2631
aa(lp2632
S'-36339'
p2633
aS'DB00292'
p2634
aS'D00548'
p2635
aS'etomidate'
p2636
aS'CCOC(=O)c1cncn1[C@@H](c1ccccc1)C'
p2637
aa(lp2638
S'-4168'
p2639
aS'DB01233'
p2640
aS'D00726'
p2641
aS'metoclopramide'
p2642
aS'CCN(CCNC(=O)c1cc(Cl)c(cc1OC)N)CC'
p2643
aa(lp2644
S'-4163'
p2645
aS'DB00247'
p2646
aS'D02357'
p2647
aS'methysergide'
p2648
aS'CCC(NC(=O)[C@H]1CN(C)[C@H]2C(=C1)c1cccc3c1c(C2)cn3C)CO'
p2649
aa(lp2650
S'-4160'
p2651
aS'DB06710'
p2652
aS'D00408'
p2653
aS'methyltestosterone'
p2654
aS'O=C1CC[C@]2(C(=C1)CC[C@@H]1[C@@H]2CC[C@]2([C@H]1CC[C@]2(C)O)C)C'
p2655
aa(lp2656
S'-2812'
p2657
aS'DB00257'
p2658
aS'D00282'
p2659
aS'clotrimazole'
p2660
aS'Clc1ccccc1C(n1cncc1)(c1ccccc1)c1ccccc1'
p2661
aa(lp2662
S'-2907'
p2663
aS'DB00531'
p2664
aS'D00287'
p2665
aS'cyclophosphamide'
p2666
aS'ClCCN(P1(=O)NCCCO1)CCCl'
p2667
aa(lp2668
S'-2905'
p2669
aS'DB00979'
p2670
aS'""'
p2671
aS'cyclopentolate'
p2672
aS'CN(CCOC(=O)C(C1(O)CCCC1)c1ccccc1)C'
p2673
aa(lp2674
S'-6398970'
p2675
aS'DB00535'
p2676
aS'D00917'
p2677
aS'cefdinir'
p2678
aS'O/N=C(/c1csc(n1)N)\\C(=O)N[C@@H]1C(=O)N2[C@@H]1SCC(=C2C(=O)O)C=C'
p2679
aa(lp2680
S'-2019'
p2681
aS'DB00970'
p2682
aS'D00214'
p2683
aS'Dactinomycin'
p2684
aS'O=C1N[C@H](C(C)C)C(=O)N2CCC[C@H]2C(=O)N(C)CC(=O)N([C@H](C(=O)O[C@@H]([C@@H]1NC(=O)c1c2nc3c(ccc(c3oc2c(c(=O)c1N)C)C)C(=O)N[C@H]1[C@@H](C)OC(=O)[C@H](C(C)C)N(C)C(=O)CN(C(=O)[C@H]2N(C(=O)[C@H](NC1=O)C(C)C)CCC2)C)C)C(C)C)C'
p2685
aa(lp2686
S'-5291'
p2687
aS'DB00619'
p2688
aS'D01441'
p2689
aS'imatinib'
p2690
aS'CN1CCN(CC1)Cc1ccc(cc1)C(=O)Nc1ccc(c(c1)Nc1nccc(n1)c1cccnc1)C'
p2691
aa(lp2692
S'-5297'
p2693
aS'DB01082'
p2694
aS'""'
p2695
aS'streptomycin'
p2696
aS'OC[C@@H]1O[C@@H](O[C@H]2[C@H](O[C@H]3[C@H](O)[C@@H](O)[C@@H]([C@H]([C@@H]3NC(=N)N)O)NC(=N)N)O[C@H]([C@]2(O)C=O)C)[C@H]([C@@H]([C@H]1O)O)NC'
p2697
aa(lp2698
S'-2913'
p2699
aS'DB00434'
p2700
aS'""'
p2701
aS'cyproheptadine'
p2702
aS'CN1CCC(=C2c3ccccc3C=Cc3c2cccc3)CC1'
p2703
aa(lp2704
S'-5566'
p2705
aS'DB00831'
p2706
aS'""'
p2707
aS'trifluoperazine'
p2708
aS'CN1CCN(CC1)CCCN1c2ccccc2Sc2c1cc(cc2)C(F)(F)F'
p2709
aa(lp2710
S'-2083'
p2711
aS'DB01001'
p2712
aS'D02147'
p2713
aS'salbutamol'
p2714
aS'OCc1cc(ccc1O)C(CNC(C)(C)C)O'
p2715
aa(lp2716
S'-158440'
p2717
aS'DB06705'
p2718
aS'D04286'
p2719
aS'gadofosveset trisodium'
p2720
aS'[O-]C(=O)CN(C(CN(CC(=O)[O-])CCN(CC(=O)[O-])CC(=O)[O-])COP(=O)(OC1CCC(CC1)(c1ccccc1)c1ccccc1)[O-])CC(=O)[O-].O.[Na].[Na].[Na].[Gd]'
p2721
aa(lp2722
S'-5584'
p2723
aS'DB00726'
p2724
aS'D00394'
p2725
aS'trimipramine'
p2726
aS'CN(CC(CN1c2ccccc2CCc2c1cccc2)C)C'
p2727
aa(lp2728
S'-16850'
p2729
aS'DB00693'
p2730
aS'D01261'
p2731
aS'fluorescein'
p2732
aS'Oc1ccc2c(c1)Oc1c(C32OC(=O)c2c3cccc2)ccc(c1)O'
p2733
aa(lp2734
S'-2123'
p2735
aS'DB00488'
p2736
aS'""'
p2737
aS'Altretamine'
p2738
aS'CN(c1nc(nc(n1)N(C)C)N(C)C)C'
p2739
aa(lp2740
S'-34312'
p2741
aS'DB00776'
p2742
aS'D00533'
p2743
aS'oxcarbazepine'
p2744
aS'O=C1Cc2ccccc2N(c2c1cccc2)C(=O)N'
p2745
aa(lp2746
S'-2232'
p2747
aS'DB00278'
p2748
aS'""'
p2749
aS'argatroban'
p2750
aS'NC(=NCCC[C@@H](C(=O)N1CC[C@H](C[C@@H]1C(=O)O)C)NS(=O)(=O)c1cccc2c1NC[C@@H](C2)C)N'
p2751
aa(lp2752
S'-5035'
p2753
aS'DB00481'
p2754
aS'""'
p2755
aS'raloxifene'
p2756
aS'Oc1ccc2c(c1)sc(c2C(=O)c1ccc(cc1)OCCN1CCCCC1)c1ccc(cc1)O'
p2757
aa(lp2758
S'-39507'
p2759
aS'DB00896'
p2760
aS'D05729'
p2761
aS'rimexolone'
p2762
aS'CCC(=O)[C@@]1(C)[C@H](C)CC2[C@]1(C)C[C@H](O)C1C2CCC2=CC(=O)C=C[C@]12C'
p2763
aa(lp2764
S'-5746'
p2765
aS'DB00305'
p2766
aS'D00208'
p2767
aS'Mitomycin'
p2768
aS'CO[C@@]12[C@H]3N[C@H]3CN2C2=C([C@H]1COC(=O)N)C(=O)C(=C(C2=O)C)N'
p2769
aa(lp2770
S'-5038'
p2771
aS'DB00178'
p2772
aS'D00421'
p2773
aS'ramipril'
p2774
aS'CCOC(=O)[C@@H](N[C@H](C(=O)N1[C@H]2CCC[C@H]2C[C@H]1C(=O)O)C)CCc1ccccc1'
p2775
aa(lp2776
S'-5039'
p2777
aS'DB00863'
p2778
aS'D00422'
p2779
aS'ranitidine'
p2780
aS'CN/C(=C\\[N+](=O)[O-])/NCCSCc1ccc(o1)CN(C)C'
p2781
aa(lp2782
S'-4768'
p2783
aS'DB00925'
p2784
aS'""'
p2785
aS'phenoxybenzamine'
p2786
aS'ClCCN(C(COc1ccccc1)C)Cc1ccccc1'
p2787
aa(lp2788
S'-2344'
p2789
aS'DB00245'
p2790
aS'""'
p2791
aS'Benzatropine'
p2792
aS'CN1[C@@H]2CC[C@H]1C[C@H](C2)OC(c1ccccc1)c1ccccc1'
p2793
aa(lp2794
S'-2349'
p2795
aS'DB01053'
p2796
aS'D02336'
p2797
aS'penicillin g'
p2798
aS'O=C(Cc1ccccc1)N[C@@H]1C(=O)N2[C@@H]1SC([C@@H]2C(=O)O)(C)C'
p2799
aa(lp2800
S'-3291'
p2801
aS'DB00593'
p2802
aS'D00539'
p2803
aS'ethosuximide'
p2804
aS'CC1(CC)CC(=O)NC1=O'
p2805
aa(lp2806
S'-3715'
p2807
aS'DB00328'
p2808
aS'D00141'
p2809
aS'indomethacin'
p2810
aS'COc1ccc2c(c1)c(CC(=O)O)c(n2C(=O)c1ccc(cc1)Cl)C'
p2811
aa(lp2812
S'-72467'
p2813
aS'DB00290'
p2814
aS'""'
p2815
aS'bleomycin'
p2816
aS'OCC1OC(O[C@H]([C@@H](C(=O)N[C@@H]([C@H]([C@@H](C(=O)N[C@H](C(=O)NCCc2scc(n2)c2scc(n2)C(=O)NCCC[S+](C)C)[C@H](O)C)C)O)C)NC(=O)c2nc(nc(c2C)N)[C@H](CC(=O)N)NC[C@@H](C(=O)N)N)c2[nH]cnc2)C(C(C1O)O)OC1OC(CO)C(C(C1O)OC(=O)N)O'
p2817
aa(lp2818
S'-50294'
p2819
aS'DB00716'
p2820
aS'D05129'
p2821
aS'Nedocromil'
p2822
aS'CCCc1c2oc(cc(=O)c2cc2c1n(CC)c(cc2=O)C(=O)O)C(=O)O'
p2823
aa(lp2824
S'-2646'
p2825
aS'DB01150'
p2826
aS'""'
p2827
aS'cefprozil'
p2828
aS'C/C=C/C1=C(C(=O)O)N2[C@H](SC1)[C@@H](C2=O)NC(=O)[C@@H](c1ccc(cc1)O)N'
p2829
aa(lp2830
S'-3749'
p2831
aS'DB01029'
p2832
aS'D00523'
p2833
aS'irbesartan'
p2834
aS'CCCCC1=NC2(C(=O)N1Cc1ccc(cc1)c1ccccc1c1n[nH]nn1)CCCC2'
p2835
aa(lp2836
S'-3746'
p2837
aS'DB00332'
p2838
aS'""'
p2839
aS'ipratropium bromide'
p2840
aS'OCC(c1ccccc1)C(=O)O[C@@H]1C[C@@H]2CC[C@H](C1)[N@+]2(C)C(C)C.Br'
p2841
aa(lp2842
S'-2610'
p2843
aS'DB01140'
p2844
aS'D00257'
p2845
aS'cefadroxil'
p2846
aS'O=C([C@@H](c1ccc(cc1)O)N)N[C@@H]1C(=O)N2[C@@H]1SCC(=C2C(=O)O)C'
p2847
aa(lp2848
S'-4440'
p2849
aS'DB00952'
p2850
aS'""'
p2851
aS'naratriptan'
p2852
aS'CNS(=O)(=O)CCc1ccc2c(c1)c(c[nH]2)C1CCN(CC1)C'
p2853
aa(lp2854
S'-2732'
p2855
aS'DB00310'
p2856
aS'D00272'
p2857
aS'chlorthalidone'
p2858
aS'O=C1NC(c2c1cccc2)(O)c1ccc(c(c1)S(=O)(=O)N)Cl'
p2859
aa(lp2860
S'-64147'
p2861
aS'DB01610'
p2862
aS'""'
p2863
aS'valganciclovir'
p2864
aS'OCC(OCn1cnc2c1[nH]c(N)nc2=O)COC(=O)[C@H](C(C)C)N'
p2865
aa(lp2866
S'-4509'
p2867
aS'DB00698'
p2868
aS'D00439'
p2869
aS'nitrofurantoin'
p2870
aS'O=C1NC(=O)N(C1)/N=C\\c1ccc(o1)[N+](=O)[O-]'
p2871
aa(lp2872
S'-444033'
p2873
aS'DB01410'
p2874
aS'D01703'
p2875
aS'ciclesonide'
p2876
aS'O=C(C(C)C)OCC(=O)[C@@]12OC(O[C@@H]1C[C@@H]1[C@]2(C)C[C@H](O)[C@H]2[C@H]1CCC1=CC(=O)C=C[C@]21C)C1CCCCC1'
p2877
aa(lp2878
S'-4506'
p2879
aS'DB01595'
p2880
aS'D00531'
p2881
aS'nitrazepam'
p2882
aS'O=C1CN=C(c2c(N1)ccc(c2)[N+](=O)[O-])c1ccccc1'
p2883
aa(lp2884
S'-5311039'
p2885
aS'DB00520'
p2886
aS'D07626'
p2887
aS'caspofungin'
p2888
aS'NCCN[C@H]1NC(=O)[C@@H]2[C@@H](O)CCN2C(=O)[C@@H](NC(=O)[C@@H](NC(=O)[C@H]2N(C(=O)[C@@H](NC(=O)C(C[C@H]1O)NC(=O)CCCCCCCCC(CC(CC)C)C)[C@H](O)C)C[C@@H](C2)O)[C@@H]([C@H](c1ccc(cc1)O)O)O)[C@@H](CCN)O'
p2889
aa(lp2890
S'-3519'
p2891
aS'DB01018'
p2892
aS'""'
p2893
aS'guanfacine'
p2894
aS'O=C(Cc1c(Cl)cccc1Cl)NC(=N)N'
p2895
aa(lp2896
S'-3518'
p2897
aS'DB01170'
p2898
aS'D02237'
p2899
aS'guanethidine'
p2900
aS'NC(=NCCN1CCCCCCC1)N'
p2901
aa(lp2902
S'-4211'
p2903
aS'DB00648'
p2904
aS'D00420'
p2905
aS'mitotane'
p2906
aS'ClC(C(c1ccccc1Cl)c1ccc(cc1)Cl)Cl'
p2907
aa(lp2908
S'-3512'
p2909
aS'DB00400'
p2910
aS'D00209'
p2911
aS'griseofulvin'
p2912
aS'COC1=CC(=O)C[C@H]([C@@]21Oc1c(C2=O)c(OC)cc(c1Cl)OC)C'
p2913
aa(lp2914
S'-3510'
p2915
aS'DB00889'
p2916
aS'D04370'
p2917
aS'granisetron'
p2918
aS'CN1C2CCCC1CC(C2)NC(=O)c1nn(c2c1cccc2)C'
p2919
aa(lp2920
S'-159'
p2921
aS'DB01240'
p2922
aS'D00106'
p2923
aS'Epoprostenol'
p2924
aS'CCCCC[C@@H](/C=C/[C@H]1[C@H](O)C[C@H]2[C@@H]1CC(=CCCCC(=O)O)O2)O'
p2925
aa(lp2926
S'-158'
p2927
aS'DB00917'
p2928
aS'D00079'
p2929
aS'Dinoprostone'
p2930
aS'CCCCC[C@@H](/C=C/[C@H]1[C@H](O)CC(=O)[C@@H]1C/C=C\\CCCC(=O)O)O'
p2931
aa(lp2932
S'-4178'
p2933
aS'DB00379'
p2934
aS'""'
p2935
aS'mexiletine'
p2936
aS'CC(COc1c(C)cccc1C)N'
p2937
aa(lp2938
S'-5481350'
p2939
aS'DB00300'
p2940
aS'D01982'
p2941
aS'Tenofovir'
p2942
aS'C[C@H](Cn1cnc2c1ncnc2N)OCP(=O)(O)O'
p2943
aa(lp2944
S'-1935'
p2945
aS'DB00382'
p2946
aS'""'
p2947
aS'Tacrine'
p2948
aS'Nc1c2CCCCc2nc2c1cccc2'
p2949
aa(lp2950
S'-4170'
p2951
aS'DB00524'
p2952
aS'D00431'
p2953
aS'metolazone'
p2954
aS'CC1Nc2cc(Cl)c(cc2C(=O)N1c1ccccc1C)S(=O)(=O)N'
p2955
aa(lp2956
S'-4171'
p2957
aS'DB00264'
p2958
aS'D02358'
p2959
aS'metoprolol'
p2960
aS'COCCc1ccc(cc1)OCC(CNC(C)C)O'
p2961
aa(lp2962
S'-4173'
p2963
aS'DB00916'
p2964
aS'D00409'
p2965
aS'metronidazole'
p2966
aS'OCCn1c(C)ncc1[N+](=O)[O-]'
p2967
aa(lp2968
S'-27686'
p2969
aS'DB01003'
p2970
aS'D07753'
p2971
aS'Cromoglicic acid'
p2972
aS'OC(COc1cccc2c1c(=O)cc(o2)C(=O)O)COc1cccc2c1c(=O)cc(o2)C(=O)O'
p2973
aa(lp2974
S'-3226'
p2975
aS'DB00228'
p2976
aS'D00543'
p2977
aS'enflurane'
p2978
aS'FC(OC(C(Cl)F)(F)F)F'
p2979
aa(lp2980
S'-150610'
p2981
aS'DB00303'
p2982
aS'D07908'
p2983
aS'ertapenem'
p2984
aS'O=C([C@H]1NC[C@H](C1)SC1=C(C(=O)O)N2[C@H]([C@H]1C)[C@H](C2=O)[C@H](O)C)Nc1cccc(c1)C(=O)O'
p2985
aa(lp2986
S'-71158'
p2987
aS'DB00659'
p2988
aS'D02780'
p2989
aS'acamprosate'
p2990
aS'CC(=O)NCCCS(=O)(=O)O'
p2991
aa(lp2992
S'-657298'
p2993
aS'DB00550'
p2994
aS'D00562'
p2995
aS'propylthiouracil'
p2996
aS'CCCc1cc(=O)[nH]c(=S)[nH]1'
p2997
aa(lp2998
S'-6691'
p2999
aS'DB00682'
p3000
aS'""'
p3001
aS'warfarin'
p3002
aS'CC(=O)CC(c1c(=O)oc2c(c1O)cccc2)c1ccccc1'
p3003
aa(lp3004
S'-5311181'
p3005
aS'DB01088'
p3006
aS'""'
p3007
aS'iloprost'
p3008
aS'CC#CCC(C(/C=C/C1C(O)CC2C1C/C(=C\\CCCC(=O)OCC(=O)c1ccccc1)/C2)O)C'
p3009
aa(lp3010
S'-5381226'
p3011
aS'DB01045'
p3012
aS'D00211'
p3013
aS'Rifampin'
p3014
aS'CO[C@H]1/C=C/O[C@@]2(C)Oc3c(C2=O)c2c(O)c(/C=N/N4CCN(CC4)C)c(c(c2c(c3C)O)O)NC(=O)/C(=C\\C=C\\[C@@H]([C@@H]([C@H]([C@H]([C@@H]([C@@H]([C@H]1C)OC(=O)C)C)O)C)O)C)/C'
p3015
aa(lp3016
S'-36811'
p3017
aS'DB00841'
p3018
aS'D03879'
p3019
aS'dobutamine'
p3020
aS'CC(CCc1ccc(cc1)O)NCCc1ccc(c(c1)O)O'
p3021
aa(lp3022
S'-4196'
p3023
aS'DB00834'
p3024
aS'D00585'
p3025
aS'mifepristone'
p3026
aS'CC#C[C@]1(O)CC[C@@H]2[C@]1(C)C[C@H](c1ccc(cc1)N(C)C)C1=C3CCC(=O)C=C3CC[C@@H]21'
p3027
aa(lp3028
S'-5359'
p3029
aS'DB00870'
p3030
aS'D00452'
p3031
aS'suprofen'
p3032
aS'OC(=O)C(c1ccc(cc1)C(=O)c1cccs1)C'
p3033
aa(lp3034
S'-4192'
p3035
aS'DB00683'
p3036
aS'D00550'
p3037
aS'midazolam'
p3038
aS'Clc1ccc2c(c1)C(=NCc1n2c(C)nc1)c1ccccc1F'
p3039
aa(lp3040
S'-5352'
p3041
aS'DB00605'
p3042
aS'D00120'
p3043
aS'sulindac'
p3044
aS'OC(=O)CC1=C(C)/C(=C/c2ccc(cc2)S(=O)C)/c2c1cc(F)cc2'
p3045
aa(lp3046
S'-60184'
p3047
aS'DB00790'
p3048
aS'D03753'
p3049
aS'perindopril'
p3050
aS'CCC[C@@H](C(=O)OCC)N[C@H](C(=O)N1[C@H]2CCCC[C@H]2C[C@H]1C(=O)O)C'
p3051
aa(lp3052
S'-2133'
p3053
aS'DB00288'
p3054
aS'D01387'
p3055
aS'amcinonide'
p3056
aS'CC(=O)OCC(=O)[C@@]12OC3(O[C@@H]1C[C@@H]1[C@]2(C)C[C@H](O)[C@]2([C@H]1CCC1=CC(=O)C=C[C@]21C)F)CCCC3'
p3057
aa(lp3058
S'-2130'
p3059
aS'DB00915'
p3060
aS'""'
p3061
aS'amantadine'
p3062
aS'NC12CC3CC(C2)CC(C1)C3'
p3063
aa(lp3064
S'-2131'
p3065
aS'DB01122'
p3066
aS'""'
p3067
aS'ambenonium'
p3068
aS'CC[N+](Cc1ccccc1Cl)(CCNC(=O)C(=O)NCC[N+](Cc1ccccc1Cl)(CC)CC)CC'
p3069
aa(lp3070
S'-60879'
p3071
aS'DB00876'
p3072
aS'D04040'
p3073
aS'eprosartan'
p3074
aS'CCCCc1ncc(n1Cc1ccc(cc1)C(=O)O)/C=C(/C(=O)O)\\Cc1cccs1'
p3075
aa(lp3076
S'-60871'
p3077
aS'DB00718'
p3078
aS'D01655'
p3079
aS'adefovir dipivoxil'
p3080
aS'O=C(C(C)(C)C)OCOP(=O)(OCOC(=O)C(C)(C)C)COCCn1cnc2c1ncnc2N'
p3081
aa(lp3082
S'-4991'
p3083
aS'DB00545'
p3084
aS'D00487'
p3085
aS'pyridostigmine'
p3086
aS'C[n+]1cccc(c1)OC(=O)N(C)C'
p3087
aa(lp3088
S'-5645'
p3089
aS'DB01586'
p3090
aS'D00734'
p3091
aS'ursodeoxycholic acid'
p3092
aS'O[C@@H]1CC[C@]2([C@@H](C1)C[C@@H]([C@@H]1[C@@H]2CC[C@]2([C@H]1CC[C@@H]2[C@@H](CCC(=O)O)C)C)O)C'
p3093
aa(lp3094
S'-5647'
p3095
aS'DB00577'
p3096
aS'D00398'
p3097
aS'Valaciclovir'
p3098
aS'CC([C@@H](C(=O)OCCOCn1cnc2c1[nH]c(N)nc2=O)N)C'
p3099
aa(lp3100
S'-2171'
p3101
aS'DB01060'
p3102
aS'""'
p3103
aS'amoxicillin'
p3104
aS'O=C([C@@H](c1ccc(cc1)O)N)N[C@@H]1C(=O)N2[C@@H]1SC([C@@H]2C(=O)O)(C)C'
p3105
aa(lp3106
S'-3355'
p3107
aS'DB01195'
p3108
aS'D07962'
p3109
aS'flecainide'
p3110
aS'O=C(c1cc(OCC(F)(F)F)ccc1OCC(F)(F)F)NCC1CCCCN1'
p3111
aa(lp3112
S'-3354'
p3113
aS'DB01148'
p3114
aS'""'
p3115
aS'flavoxate'
p3116
aS'O=C(c1cccc2c1oc(c1ccccc1)c(c2=O)C)OCCN1CCCCC1'
p3117
aa(lp3118
S'-51263'
p3119
aS'DB00802'
p3120
aS'""'
p3121
aS'alfentanil'
p3122
aS'COCC1(CCN(CC1)CCn1nnn(c1=O)CC)N(c1ccccc1)C(=O)CC'
p3123
aa(lp3124
S'-3350'
p3125
aS'DB01216'
p3126
aS'D00321'
p3127
aS'finasteride'
p3128
aS'O=C1C=C[C@]2([C@H](N1)CC[C@@H]1[C@@H]2CC[C@]2([C@H]1CC[C@@H]2C(=O)NC(C)(C)C)C)C'
p3129
aa(lp3130
S'-5002'
p3131
aS'DB01224'
p3132
aS'""'
p3133
aS'quetiapine'
p3134
aS'OCCOCCN1CCN(CC1)C1=Nc2ccccc2Sc2c1cccc2'
p3135
aa(lp3136
S'-5005'
p3137
aS'DB00881'
p3138
aS'D03752'
p3139
aS'quinapril'
p3140
aS'CCOC(=O)[C@@H](N[C@H](C(=O)N1Cc2ccccc2C[C@H]1C(=O)O)C)CCc1ccccc1'
p3141
aa(lp3142
S'-4771'
p3143
aS'DB00191'
p3144
aS'D05458'
p3145
aS'phentermine'
p3146
aS'CC(Cc1ccccc1)(N)C'
p3147
aa(lp3148
S'-5353980'
p3149
aS'DB00795'
p3150
aS'D00448'
p3151
aS'sulfasalazine'
p3152
aS'OC(=O)c1cc(/N=N/c2ccc(cc2)S(=O)(=O)Nc2ccccn2)ccc1O'
p3153
aa(lp3154
S'-942'
p3155
aS'DB00184'
p3156
aS'D03365'
p3157
aS'nicotine'
p3158
aS'CN1CCCC1c1cccnc1'
p3159
aa(lp3160
S'-6447131'
p3161
aS'DB00337'
p3162
aS'""'
p3163
aS'pimecrolimus'
p3164
aS'CC[C@H]1/C=C(/C)\\C[C@@H](C)C[C@H](OC)[C@H]2O[C@](O)([C@@H](C[C@@H]2OC)C)C(=O)C(=O)N2[C@H](C(=O)O[C@@H]([C@H]([C@@H](CC1=O)O)C)/C(=C/[C@@H]1CC[C@@H]([C@@H](C1)OC)Cl)/C)CCCC2'
p3165
aa(lp3166
S'-3292'
p3167
aS'DB00754'
p3168
aS'D00708'
p3169
aS'ethotoin'
p3170
aS'CCN1C(=O)NC(C1=O)c1ccccc1'
p3171
aa(lp3172
S'-3779'
p3173
aS'DB01064'
p3174
aS'""'
p3175
aS'isoproterenol'
p3176
aS'CC(NCC(c1ccc(c(c1)O)O)O)C'
p3177
aa(lp3178
S'-110635'
p3179
aS'DB00820'
p3180
aS'D02008'
p3181
aS'tadalafil'
p3182
aS'O=C1N(C)CC(=O)N2[C@@H]1Cc1c([C@H]2c2ccc3c(c2)OCO3)[nH]c2c1cccc2'
p3183
aa(lp3184
S'-110634'
p3185
aS'DB00862'
p3186
aS'""'
p3187
aS'vardenafil'
p3188
aS'CCOc1ccc(cc1c1nc(=O)c2n([nH]1)c(CCC)nc2C)S(=O)(=O)N1CCN(CC1)CC'
p3189
aa(lp3190
S'-41744'
p3191
aS'DB00385'
p3192
aS'""'
p3193
aS'Valrubicin'
p3194
aS'CCCCC(=O)OCC(=O)[C@@]1(O)C[C@H](OC2CC(NC(=O)C(F)(F)F)C(C(O2)C)O)c2c(C1)c(O)c1c(c2O)C(=O)c2c(C1=O)cccc2OC'
p3195
aa(lp3196
S'-477468'
p3197
aS'DB01141'
p3198
aS'D02465'
p3199
aS'micafungin'
p3200
aS'CCCCCOc1ccc(cc1)c1onc(c1)c1ccc(cc1)C(=O)N[C@H]1C[C@@H](O)[C@@H](O)NC(=O)[C@@H]2[C@@H](O)[C@H](CN2C(=O)[C@@H](NC(=O)[C@@H](NC(=O)[C@H]2N(C(=O)[C@@H](NC1=O)[C@H](O)C)C[C@@H](C2)O)[C@@H]([C@H](c1ccc(c(c1)OS(=O)(=O)O)O)O)O)[C@@H](CC(=O)N)O)C'
p3201
aa(lp3202
S'-2749'
p3203
aS'DB01188'
p3204
aS'D01364'
p3205
aS'ciclopirox'
p3206
aS'Cc1cc(C2CCCCC2)n(c(=O)c1)O'
p3207
aa(lp3208
S'-2585'
p3209
aS'DB01136'
p3210
aS'D00255'
p3211
aS'carvedilol'
p3212
aS'COc1ccccc1OCCNCC(COc1cccc2c1c1ccccc1[nH]2)O'
p3213
aa(lp3214
S'-145068'
p3215
aS'DB00435'
p3216
aS'D00074'
p3217
aS'nitric oxide'
p3218
aS'[N]=O'
p3219
aa(lp3220
S'-4510'
p3221
aS'DB00727'
p3222
aS'D00515'
p3223
aS'nitroglycerin'
p3224
aS'[O-][N+](=O)OC(CO[N+](=O)[O-])CO[N+](=O)[O-]'
p3225
aa(lp3226
S'-48175'
p3227
aS'DB00596'
p3228
aS'""'
p3229
aS'halobetasol propionate'
p3230
aS'CCC(=O)O[C@@]1([C@@H](C)CC2C1(C)CC(O)[C@]1(C2C[C@@H](C2=CC(=O)C=CC12C)F)F)C(=O)CCl'
p3231
aa(lp3232
S'-4205'
p3233
aS'DB00370'
p3234
aS'D00563'
p3235
aS'mirtazapine'
p3236
aS'CN1CCN2C(C1)c1ccccc1Cc1c2nccc1'
p3237
aa(lp3238
S'-4200'
p3239
aS'DB01017'
p3240
aS'D05045'
p3241
aS'minocycline'
p3242
aS'CN([C@@H]1C(=C(C(=O)N)C(=O)[C@@]2([C@H]1C[C@@H]1Cc3c(C(=O)C1=C2O)c(O)ccc3N(C)C)O)O)C'
p3243
aa(lp3244
S'-5381'
p3245
aS'DB00799'
p3246
aS'D01132'
p3247
aS'tazarotene'
p3248
aS'CCOC(=O)c1ccc(nc1)C#Cc1ccc2c(c1)C(C)(C)CCS2'
p3249
aa(lp3250
S'-5361912'
p3251
aS'DB00615'
p3252
aS'D00424'
p3253
aS'rifabutin'
p3254
aS'CO[C@H]1/C=C/O[C@@]2(C)Oc3c(C2=O)c2C4=NC5(NC4=C(C(=O)c2c(c3C)O)NC(=O)/C(=C\\C=C\\[C@@H]([C@@H]([C@H]([C@H]([C@@H]([C@@H]([C@H]1C)OC(=O)C)C)O)C)O)C)/C)CCN(CC5)CC(C)C'
p3255
aa(lp3256
S'-2520'
p3257
aS'DB00661'
p3258
aS'D02356'
p3259
aS'verapamil'
p3260
aS'COc1ccc(cc1OC)CCN(CCCC(c1ccc(c(c1)OC)OC)(C(C)C)C#N)C'
p3261
aa(lp3262
S'-39765'
p3263
aS'DB01339'
p3264
aS'""'
p3265
aS'vecuronium'
p3266
aS'CC(=O)O[C@H]1C[C@@H]2CC[C@@H]3[C@@H]([C@]2(C[C@@H]1N1CCCCC1)C)CC[C@]1([C@H]3C[C@@H]([C@@H]1OC(=O)C)[N+]1(C)CCCCC1)C'
p3267
aa(lp3268
S'-3403'
p3269
aS'DB01095'
p3270
aS'""'
p3271
aS'fluvastatin'
p3272
aS'OC(=O)C[C@H](C[C@H](/C=C/c1c(c2ccc(cc2)F)c2c(n1C(C)C)cccc2)O)O'
p3273
aa(lp3274
S'-42113'
p3275
aS'DB01189'
p3276
aS'D00546'
p3277
aS'desflurane'
p3278
aS'FC(OC(C(F)(F)F)F)F'
p3279
aa(lp3280
S'-5344'
p3281
aS'DB00263'
p3282
aS'D00450'
p3283
aS'sulfisoxazole'
p3284
aS'Nc1ccc(cc1)S(=O)(=O)Nc1onc(c1C)C'
p3285
aa(lp3286
S'-5342'
p3287
aS'DB01138'
p3288
aS'D00449'
p3289
aS'sulfinpyrazone'
p3290
aS'O=C1N(c2ccccc2)N(C(=O)C1CCS(=O)c1ccccc1)c1ccccc1'
p3291
aa(lp3292
S'-4834'
p3293
aS'DB00319'
p3294
aS'D00466'
p3295
aS'piperacillin'
p3296
aS'CCN1CCN(C(=O)C1=O)C(=O)N[C@@H](C(=O)N[C@@H]1C(=O)N2[C@@H]1SC([C@@H]2C(=O)O)(C)C)c1ccccc1'
p3297
aa(lp3298
S'-123606'
p3299
aS'DB00918'
p3300
aS'""'
p3301
aS'almotriptan'
p3302
aS'CN(CCc1c[nH]c2c1cc(cc2)CS(=O)(=O)N1CCCC1)C'
p3303
aa(lp3304
S'-60865'
p3305
aS'DB00768'
p3306
aS'""'
p3307
aS'olopatadine'
p3308
aS'CN(CC/C=C/1\\c2cc(ccc2OCc2c1cccc2)CC(=O)O)C'
p3309
aa(lp3310
S'-5650'
p3311
aS'DB00177'
p3312
aS'D00400'
p3313
aS'valsartan'
p3314
aS'CCCCC(=O)N([C@H](C(=O)O)C(C)C)Cc1ccc(cc1)c1ccccc1c1n[nH]nn1'
p3315
aa(lp3316
S'-5651'
p3317
aS'DB00512'
p3318
aS'D00212'
p3319
aS'vancomycin'
p3320
aS'OC[C@H]1O[C@@H](Oc2c3cc4cc2Oc2ccc(cc2Cl)[C@@H](O)[C@@H]2NC(=O)[C@H](NC(=O)[C@@H]4NC(=O)[C@H](CC(=O)N)NC(=O)[C@@H]([C@@H](c4ccc(O3)c(Cl)c4)O)NC(=O)[C@@H](CC(C)C)NC)c3ccc(c(c3)c3c(O)cc(cc3[C@H](NC2=O)C(=O)O)O)O)[C@@H]([C@H]([C@@H]1O)O)O[C@@H]1O[C@@H](C)[C@H]([C@@](C1)(C)N)O'
p3321
aa(lp3322
S'-6435110'
p3323
aS'DB00602'
p3324
aS'D00804'
p3325
aS'ivermectin'
p3326
aS'CO[C@H]1C[C@@H](O[C@H]([C@@H]1O[C@H]1C[C@H](OC)[C@H]([C@@H](O1)C)O)C)O[C@H]1[C@@H](C)/C=C/C=C/2\\CO[C@H]3[C@]2(O)[C@@H](C=C([C@H]3O)C)C(=O)O[C@H]2C[C@@H](C/C=C/1\\C)O[C@]1(C2)CC[C@@H]([C@H](O1)C(C)C)C.CO[C@H]1C[C@@H](O[C@H]([C@@H]1O[C@H]1C[C@H](OC)[C@H]([C@@H](O1)C)O)C)O[C@H]1[C@@H](C)/C=C/C=C/2\\CO[C@H]3[C@]2(O)[C@@H](C=C([C@H]3O)C)C(=O)O[C@H]2C[C@@H](C/C=C/1\\C)O[C@]1(C2)CC[C@@H]([C@H](O1)[C@@H](CC)C)C'
p3327
aa(lp3328
S'-2216'
p3329
aS'DB00964'
p3330
aS'""'
p3331
aS'apraclonidine'
p3332
aS'Nc1cc(Cl)c(c(c1)Cl)NC1=NCCN1'
p3333
aa(lp3334
S'-2215'
p3335
aS'DB00714'
p3336
aS'D07460'
p3337
aS'apomorphine'
p3338
aS'CN1CCc2c3[C@H]1Cc1ccc(c(c1c3ccc2)O)O'
p3339
aa(lp3340
S'-3348'
p3341
aS'DB00950'
p3342
aS'""'
p3343
aS'fexofenadine'
p3344
aS'OC(=O)C(c1ccc(cc1)C(CCCN1CCC(CC1)C(c1ccccc1)(c1ccccc1)O)O)(C)C'
p3345
aa(lp3346
S'-3342'
p3347
aS'DB00573'
p3348
aS'D00968'
p3349
aS'fenoprofen'
p3350
aS'OC(=O)C(c1cccc(c1)Oc1ccccc1)C'
p3351
aa(lp3352
S'-3340'
p3353
aS'DB00800'
p3354
aS'D00613'
p3355
aS'fenoldopam'
p3356
aS'Oc1ccc(cc1)C1CNCCc2c1cc(O)c(c2Cl)O'
p3357
aa(lp3358
S'-6058'
p3359
aS'DB00847'
p3360
aS'D03634'
p3361
aS'cysteamine'
p3362
aS'NCCS'
p3363
aa(lp3364
S'-4748'
p3365
aS'DB00850'
p3366
aS'D00503'
p3367
aS'perphenazine'
p3368
aS'OCCN1CCN(CC1)CCCN1c2ccccc2Sc2c1cc(Cl)cc2'
p3369
aa(lp3370
S'-4740'
p3371
aS'DB00806'
p3372
aS'D00501'
p3373
aS'pentoxifylline'
p3374
aS'CC(=O)CCCCn1c(=O)c2n(C)cnc2n(c1=O)C'
p3375
aa(lp3376
S'-951'
p3377
aS'DB00368'
p3378
aS'D00076'
p3379
aS'norepinephrine'
p3380
aS'NC[C@@H](c1ccc(c(c1)O)O)O'
p3381
aa(lp3382
S'-2366'
p3383
aS'DB06698'
p3384
aS'D07522'
p3385
aS'betahistine'
p3386
aS'CNCCc1ccccn1'
p3387
aa(lp3388
S'-2369'
p3389
aS'DB00195'
p3390
aS'""'
p3391
aS'betaxolol'
p3392
aS'OC(COc1ccc(cc1)CCOCC1CC1)CNC(C)C'
p3393
aa(lp3394
S'-25419'
p3395
aS'DB00720'
p3396
aS'""'
p3397
aS'clodronate'
p3398
aS'ClC(P(=O)(O)O)(P(=O)(O)O)Cl'
p3399
aa(lp3400
S'-6476'
p3401
aS'DB05246'
p3402
aS'""'
p3403
aS'methsuximide'
p3404
aS'CN1C(=O)CC(C1=O)(C)c1ccccc1'
p3405
aa(lp3406
S'-3763'
p3407
aS'DB00753'
p3408
aS'D00545'
p3409
aS'isoflurane'
p3410
aS'FC(OC(C(F)(F)F)Cl)F'
p3411
aa(lp3412
S'-59708'
p3413
aS'DB01202'
p3414
aS'D00709'
p3415
aS'levetiracetam'
p3416
aS'CC[C@@H](N1CCCC1=O)C(=O)N'
p3417
aa(lp3418
S'-3161'
p3419
aS'DB00254'
p3420
aS'""'
p3421
aS'doxycycline'
p3422
aS'CN([C@@H]1C(=C(C(=O)N)C(=O)[C@@]2([C@H]1[C@@H](O)[C@@H]1[C@@H](C)c3cccc(c3C(=O)C1=C2O)O)O)O)C'
p3423
aa(lp3424
S'-3168'
p3425
aS'DB00450'
p3426
aS'D00308'
p3427
aS'droperidol'
p3428
aS'Fc1ccc(cc1)C(=O)CCCN1CCC(=CC1)n1c(=O)[nH]c2c1cccc2'
p3429
aa(lp3430
S'-888'
p3431
aS'DB01378'
p3432
aS''
aS'Magnesium'
p3433
aS'[Mg+2]'
p3434
aa(lp3435
S'-41774'
p3436
aS'DB00284'
p3437
aS'D00216'
p3438
aS'acarbose'
p3439
aS'OC[C@H]1O[C@H](O[C@@H]2[C@@H](CO)O[C@H]([C@@H]([C@H]2O)O)O)[C@@H]([C@H]([C@@H]1O[C@H]1O[C@H](C)[C@H]([C@@H]([C@H]1O)O)N[C@H]1C=C(CO)[C@@H]([C@@H]([C@H]1O)O)O)O)O'
p3440
aa(lp3441
S'-2733'
p3442
aS'DB00356'
p3443
aS'D00771'
p3444
aS'chlorzoxazone'
p3445
aS'Clc1ccc2c(c1)[nH]c(=O)o2'
p3446
aa(lp3447
S'-401'
p3448
aS'DB00260'
p3449
aS'""'
p3450
aS'cycloserine'
p3451
aS'N[C@@H]1CONC1=O'
p3452
aa(lp3453
S'-2751'
p3454
aS'DB01340'
p3455
aS'""'
p3456
aS'cilazapril'
p3457
aS'CCOC(=O)[C@@H](N[C@H]1CCCN2N(C1=O)[C@@H](CCC2)C(=O)O)CCc1ccccc1'
p3458
aa(lp3459
S'-2756'
p3460
aS'DB00501'
p3461
aS'D00295'
p3462
aS'cimetidine'
p3463
aS'N#CN/C(=N\\C)/NCCSCc1nc[nH]c1C'
p3464
aa(lp3465
S'-5281007'
p3466
aS'DB00851'
p3467
aS'D00288'
p3468
aS'dacarbazine'
p3469
aS'CN(/N=N\\c1[nH]cnc1C(=O)N)C'
p3470
aa(lp3471
S'-5358'
p3472
aS'DB00669'
p3473
aS'D00451'
p3474
aS'sumatriptan'
p3475
aS'CNS(=O)(=O)Cc1ccc2c(c1)c(CCN(C)C)c[nH]2'
p3476
aa(lp3477
S'-444013'
p3478
aS'DB00538'
p3479
aS'D01646'
p3480
aS'gadoversetamide'
p3481
aS'COCCNC(=O)CN(CC(=O)[O-])CCN(CC(=O)[O-])CCN(CC(=O)NCCOC)CC(=O)[O-].[Gd+3]'
p3482
aa(lp3483
S'-4463'
p3484
aS'DB00238'
p3485
aS'D00435'
p3486
aS'nevirapine'
p3487
aS'Cc1ccnc2c1[nH]c(=O)c1c(n2C2CC2)nccc1'
p3488
aa(lp3489
S'-4236'
p3490
aS'DB00745'
p3491
aS'D01832'
p3492
aS'modafinil'
p3493
aS'NC(=O)CS(=O)C(c1ccccc1)c1ccccc1'
p3494
aa(lp3495
S'-104741'
p3496
aS'DB00947'
p3497
aS'D01161'
p3498
aS'fulvestrant'
p3499
aS'O=S(CCCC(C(F)(F)F)(F)F)CCCCCCCCC[C@@H]1Cc2cc(O)ccc2[C@@H]2C1[C@@H]1CC[C@@H]([C@]1(CC2)C)O'
p3500
aa(lp3501
S'-3883'
p3502
aS'DB00448'
p3503
aS'D00355'
p3504
aS'lansoprazole'
p3505
aS'O=S(c1nc2c([nH]1)cccc2)Cc1nccc(c1C)OCC(F)(F)F'
p3506
aa(lp3507
S'-3405'
p3508
aS'DB00158'
p3509
aS'D00070'
p3510
aS'Folic Acid'
p3511
aS'OC(=O)CC[C@@H](C(=O)O)NC(=O)c1ccc(cc1)NCc1cnc2c(n1)c(=O)nc([nH]2)N'
p3512
aa(lp3513
S'-3406'
p3514
aS'DB01213'
p3515
aS'D00707'
p3516
aS'Fomepizole'
p3517
aS'Cc1c[nH]nc1'
p3518
aa(lp3519
S'-2978'
p3520
aS'DB00470'
p3521
aS'D00306'
p3522
aS'Dronabinol'
p3523
aS'CCCCCc1cc(O)c2c(c1)OC([C@H]1[C@H]2C=C(C)CC1)(C)C'
p3524
aa(lp3525
S'-2973'
p3526
aS'DB00746'
p3527
aS'D03670'
p3528
aS'Deferoxamine'
p3529
aS'NCCCCCN(C(=O)CCC(=O)NCCCCCN(C(=O)CCC(=O)NCCCCCN(C(=O)C)O)O)O'
p3530
aa(lp3531
S'-2250'
p3532
aS'DB01076'
p3533
aS'""'
p3534
aS'atorvastatin'
p3535
aS'O[C@@H](C[C@H](CC(=O)O)O)CCn1c(C(C)C)c(c(c1c1ccc(cc1)F)c1ccccc1)C(=O)Nc1ccccc1'
p3536
aa(lp3537
S'-2761171'
p3538
aS'DB00609'
p3539
aS'D00591'
p3540
aS'ethionamide'
p3541
aS'CCc1nccc(c1)C(=S)N'
p3542
aa(lp3543
S'-2021'
p3544
aS'DB00919'
p3545
aS'""'
p3546
aS'spectinomycin'
p3547
aS'CN[C@H]1[C@H](O)[C@H]2O[C@@H]3O[C@H](C)CC(=O)[C@@]3(O[C@@H]2[C@H]([C@H]1O)NC)O'
p3548
aa(lp3549
S'-2022'
p3550
aS'DB00787'
p3551
aS'D00222'
p3552
aS'Acyclovir'
p3553
aS'Nc1nc(=O)c2c([nH]1)n(COCCO)cn2'
p3554
aa(lp3555
S'-3000502'
p3556
aS'DB00314'
p3557
aS'D00135'
p3558
aS'capreomycin'
p3559
aS'NCCC[C@@H](CC(=O)NC[C@@H]1NC(=O)[C@H](CO)NC(=O)[C@@H](N)CNC(=O)[C@@H](NC(=O)/C(=C\\NC(=O)N)/NC1=O)[C@H]1CCN=C(N1)N)N.NCCC[C@@H](CC(=O)NC[C@@H]1NC(=O)[C@H](C)NC(=O)[C@@H](N)CNC(=O)[C@@H](NC(=O)/C(=C\\NC(=O)N)/NC1=O)[C@H]1CCN=C(N1)N)N'
p3560
aa(lp3561
S'-3385'
p3562
aS'DB00544'
p3563
aS'D00584'
p3564
aS'Fluorouracil'
p3565
aS'Fc1c[nH]c(=O)[nH]c1=O'
p3566
aa(lp3567
S'-2118'
p3568
aS'DB00404'
p3569
aS'D00225'
p3570
aS'alprazolam'
p3571
aS'Clc1ccc2c(c1)C(=NCc1n2c(C)nn1)c1ccccc1'
p3572
aa(lp3573
S'-4828'
p3574
aS'DB00960'
p3575
aS'D00513'
p3576
aS'pindolol'
p3577
aS'OC(COc1cccc2c1cc[nH]2)CNC(C)C'
p3578
aa(lp3579
S'-4829'
p3580
aS'DB01132'
p3581
aS'""'
p3582
aS'pioglitazone'
p3583
aS'CCc1ccc(nc1)CCOc1ccc(cc1)CC1SC(=O)NC1=O'
p3584
aa(lp3585
S'-1125'
p3586
aS'DB00360'
p3587
aS'""'
p3588
aS'tetrahydrobiopterin'
p3589
aS'CC(C(C1CNc2c(N1)c(=O)nc([nH]2)N)O)O'
p3590
aa(lp3591
S'-123631'
p3592
aS'DB00317'
p3593
aS'D01977'
p3594
aS'gefitinib'
p3595
aS'COc1cc2ncnc(c2cc1OCCCN1CCOCC1)Nc1ccc(c(c1)Cl)F'
p3596
aa(lp3597
S'-4919'
p3598
aS'DB00387'
p3599
aS'""'
p3600
aS'procyclidine'
p3601
aS'OC(c1ccccc1)(C1CCCCC1)CCN1CCCC1'
p3602
aa(lp3603
S'-60852'
p3604
aS'DB00710'
p3605
aS'""'
p3606
aS'ibandronate'
p3607
aS'CCCCCN(CCC(P(=O)(O)O)(P(=O)(O)O)O)C'
p3608
aa(lp3609
S'-5487'
p3610
aS'DB00697'
p3611
aS'""'
p3612
aS'tizanidine'
p3613
aS'Clc1ccc2c(c1NC1=NCCN1)nsn2'
p3614
aa(lp3615
S'-5486'
p3616
aS'DB00775'
p3617
aS'""'
p3618
aS'tirofiban'
p3619
aS'CCCCS(=O)(=O)N[C@H](C(=O)O)Cc1ccc(cc1)OCCCCC1CCNCC1'
p3620
aa(lp3621
S'-47320'
p3622
aS'DB00565'
p3623
aS'D00759'
p3624
aS'Cisatracurium Besylate'
p3625
aS'[O-]S(=O)(=O)c1ccccc1.[O-]S(=O)(=O)c1ccccc1.COc1cc2c(cc1OC)CC[N@+]([C@@H]2Cc1ccc(c(c1)OC)OC)(C)CCC(=O)OCCCCCOC(=O)CC[N@@+]1(C)CCc2c([C@H]1Cc1ccc(c(c1)OC)OC)cc(c(c2)OC)OC'
p3626
aa(lp3627
S'-5245'
p3628
aS'DB00884'
p3629
aS'""'
p3630
aS'risedronate'
p3631
aS'OP(=O)(C(P(=O)(O)O)(Cc1cccnc1)O)O'
p3632
aa(lp3633
S'-5466'
p3634
aS'DB00906'
p3635
aS'""'
p3636
aS'tiagabine'
p3637
aS'OC(=O)[C@@H]1CCCN(C1)CC/C=C(\\c1sccc1C)/c1sccc1C'
p3638
aa(lp3639
S'-3379'
p3640
aS'DB00180'
p3641
aS'D00324'
p3642
aS'flunisolide'
p3643
aS'OCC(=O)[C@@]12OC(O[C@@H]1C[C@@H]1[C@]2(C)C[C@H](O)[C@H]2[C@H]1C[C@@H](C1=CC(=O)C=C[C@]21C)F)(C)C'
p3644
aa(lp3645
S'-3373'
p3646
aS'DB01205'
p3647
aS'D00697'
p3648
aS'flumazenil'
p3649
aS'CCOC(=O)c1ncn2c1CN(C)C(=O)c1c2ccc(c1)F'
p3650
aa(lp3651
S'-3372'
p3652
aS'DB00623'
p3653
aS'""'
p3654
aS'fluphenazine'
p3655
aS'OCCN1CCN(CC1)CCCN1c2ccccc2Sc2c1cc(cc2)C(F)(F)F'
p3656
aa(lp3657
S'-6398525'
p3658
aS'DB00364'
p3659
aS'""'
p3660
aS'sucralfate'
p3661
aS'O[Al](OS(=O)(=O)O[C@H]1[C@@H](O[C@@H]([C@H]([C@@H]1OS(=O)(=O)O[Al](O)O)OS(=O)(=O)O[Al](O)O)COS(=O)(=O)O[Al](O)O)O[C@]1(COS(=O)(=O)O[Al](O)O)O[C@@H]([C@H]([C@@H]1OS(=O)(=O)O[Al](O)O)OS(=O)(=O)O[Al](O)O)OS(=O)(=O)O[Al](O)O)O'
p3662
aa(lp3663
S'-5064'
p3664
aS'DB00811'
p3665
aS'D00423'
p3666
aS'ribavirin'
p3667
aS'OC[C@H]1O[C@H]([C@@H]([C@@H]1O)O)n1cnc(n1)C(=O)N'
p3668
aa(lp3669
S'-5453'
p3670
aS'DB04572'
p3671
aS'D00583'
p3672
aS'thiotepa'
p3673
aS'S=P(N1CC1)(N1CC1)N1CC1'
p3674
aa(lp3675
S'-2375'
p3676
aS'DB01128'
p3677
aS'D00961'
p3678
aS'bicalutamide'
p3679
aS'N#Cc1ccc(cc1C(F)(F)F)NC(=O)C(CS(=O)(=O)c1ccc(cc1)F)(O)C'
p3680
aa(lp3681
S'-4212'
p3682
aS'DB01204'
p3683
aS'""'
p3684
aS'mitoxantrone'
p3685
aS'OCCNCCNc1ccc(c2c1C(=O)c1c(C2=O)c(O)ccc1O)NCCNCCO'
p3686
aa(lp3687
S'-2370'
p3688
aS'DB01019'
p3689
aS'""'
p3690
aS'bethanechol'
p3691
aS'CC(C[N+](C)(C)C)OC(=O)N'
p3692
aa(lp3693
S'-2983'
p3694
aS'DB00618'
p3695
aS'D00290'
p3696
aS'demeclocycline'
p3697
aS'CN([C@@H]1C(=C(C(=O)N)C(=O)[C@@]2([C@H]1C[C@H]1C(=C2O)C(=O)c2c([C@H]1O)c(Cl)ccc2O)O)O)C'
p3698
aa(lp3699
S'-3793'
p3700
aS'DB01167'
p3701
aS'D00350'
p3702
aS'itraconazole'
p3703
aS'CCC(n1ncn(c1=O)c1ccc(cc1)N1CCN(CC1)c1ccc(cc1)OC[C@H]1CO[C@](O1)(Cn1cncn1)c1ccc(cc1Cl)Cl)C'
p3704
aa(lp3705
S'-3151'
p3706
aS'DB01184'
p3707
aS'D01745'
p3708
aS'domperidone'
p3709
aS'Clc1ccc2c(c1)[nH]c(=O)n2C1CCN(CC1)CCCn1c(=O)[nH]c2c1cccc2'
p3710
aa(lp3711
S'-4689'
p3712
aS'DB01421'
p3713
aS'""'
p3714
aS'paromomycin'
p3715
aS'OC[C@H]1O[C@H]([C@@H]([C@@H]1O[C@H]1O[C@@H](CN)[C@H]([C@@H]([C@H]1N)O)O)O)O[C@@H]1[C@@H](O)[C@H](N)C[C@@H]([C@H]1O[C@H]1O[C@H](CO)[C@H]([C@@H]([C@H]1N)O)O)N'
p3716
aa(lp3717
S'-3157'
p3718
aS'DB00590'
p3719
aS'""'
p3720
aS'doxazosin'
p3721
aS'COc1cc2nc(nc(c2cc1OC)N)N1CCN(CC1)C(=O)C1COc2c(O1)cccc2'
p3722
aa(lp3723
S'-3156'
p3724
aS'DB00561'
p3725
aS'D01872'
p3726
aS'doxapram'
p3727
aS'CCN1CC(C(C1=O)(c1ccccc1)c1ccccc1)CCN1CCOCC1'
p3728
aa(lp3729
S'-3158'
p3730
aS'DB01142'
p3731
aS'""'
p3732
aS'doxepin'
p3733
aS'CN(CC/C=C/1\\c2ccccc2OCc2c1cccc2)C'
p3734
aa(lp3735
S'-82146'
p3736
aS'DB00307'
p3737
aS'""'
p3738
aS'bexarotene'
p3739
aS'Cc1cc2c(cc1C(=C)c1ccc(cc1)C(=O)O)C(C)(C)CCC2(C)C'
p3740
aa(lp3741
S'-2769'
p3742
aS'DB00604'
p3743
aS'D00274'
p3744
aS'cisapride'
p3745
aS'CO[C@H]1CN(CCCOc2ccc(cc2)F)CC[C@H]1NC(=O)c1cc(Cl)c(cc1OC)N'
p3746
aa(lp3747
S'-4539'
p3748
aS'DB01059'
p3749
aS'D00210'
p3750
aS'norfloxacin'
p3751
aS'CCn1cc(C(=O)O)c(=O)c2c1cc(N1CCNCC1)c(c2)F'
p3752
aa(lp3753
S'-2762'
p3754
aS'DB00827'
p3755
aS'D00872'
p3756
aS'cinoxacin'
p3757
aS'CCn1nc(C(=O)O)c(=O)c2c1cc1OCOc1c2'
p3758
aa(lp3759
S'-2564'
p3760
aS'DB00748'
p3761
aS'""'
p3762
aS'carbinoxamine'
p3763
aS'CN(CCOC(c1ccccn1)c1ccc(cc1)Cl)C'
p3764
aa(lp3765
S'-3562'
p3766
aS'DB01159'
p3767
aS'D00542'
p3768
aS'halothane'
p3769
aS'ClC(C(F)(F)F)Br'
p3770
aa(lp3771
S'-187'
p3772
aS'DB03128'
p3773
aS''
aS'Acetylcholine'
p3774
aS'CC(=O)OCC[N+](C)(C)C'
p3775
aa(lp3776
S'-60854'
p3777
aS'DB00246'
p3778
aS'""'
p3779
aS'ziprasidone'
p3780
aS'O=C1Nc2c(C1)cc(c(c2)Cl)CCN1CCN(CC1)c1nsc2c1cccc2'
p3781
aa(lp3782
S'-3899'
p3783
aS'DB01097'
p3784
aS'D00749'
p3785
aS'leflunomide'
p3786
aS'O=C(c1cnoc1C)Nc1ccc(cc1)C(F)(F)F'
p3787
aa(lp3788
S'-3890'
p3789
aS'DB00654'
p3790
aS'D00356'
p3791
aS'latanoprost'
p3792
aS'O[C@@H](CCc1ccccc1)CC[C@H]1[C@H](O)C[C@@H]([C@@H]1C/C=C\\CCCC(=O)OC(C)C)O'
p3793
aa(lp3794
S'-156419'
p3795
aS'DB01012'
p3796
aS'""'
p3797
aS'cinacalcet'
p3798
aS'C[C@H](c1cccc2c1cccc2)NCCCc1cccc(c1)C(F)(F)F'
p3799
aa(lp3800
S'-3419'
p3801
aS'DB00492'
p3802
aS'D00622'
p3803
aS'fosinopril'
p3804
aS'CCC(=O)OC(C(C)C)OP(=O)(CC(=O)N1C[C@@H](C[C@H]1C(=O)O)C1CCCCC1)CCCCc1ccccc1'
p3805
aa(lp3806
S'-3417'
p3807
aS'DB00828'
p3808
aS'D04253'
p3809
aS'fosfomycin'
p3810
aS'C[C@@H]1O[C@@H]1P(=O)(O)O'
p3811
aa(lp3812
S'-3414'
p3813
aS'DB00529'
p3814
aS'D00579'
p3815
aS'foscarnet'
p3816
aS'OC(=O)P(=O)(O)O'
p3817
aa(lp3818
S'-3410'
p3819
aS'DB00983'
p3820
aS'""'
p3821
aS'formoterol'
p3822
aS'O=CNc1cc(ccc1O)C(CNC(Cc1ccc(cc1)OC)C)O'
p3823
aa(lp3824
S'-2786'
p3825
aS'DB01190'
p3826
aS'D00277'
p3827
aS'clindamycin'
p3828
aS'CCC[C@H]1CN([C@@H](C1)C(=O)NC([C@H]1O[C@H](SC)[C@@H]([C@H]([C@H]1O)O)O)C(Cl)C)C'
p3829
aa(lp3830
S'-2781'
p3831
aS'DB00283'
p3832
aS'D00666'
p3833
aS'clemastine'
p3834
aS'Clc1ccc(cc1)[C@@](c1ccccc1)(OCC[C@H]1CCCN1C)C'
p3835
aa(lp3836
S'-4075'
p3837
aS'DB00244'
p3838
aS'D00377'
p3839
aS'Mesalazine'
p3840
aS'Nc1ccc(c(c1)C(=O)O)O'
p3841
aa(lp3842
S'-3964'
p3843
aS'DB00408'
p3844
aS'D02340'
p3845
aS'loxapine'
p3846
aS'CN1CCN(CC1)C1=Nc2ccccc2Oc2c1cc(Cl)cc2'
p3847
aa(lp3848
S'-3962'
p3849
aS'DB00227'
p3850
aS'D00359'
p3851
aS'lovastatin'
p3852
aS'CC[C@@H](C(=O)O[C@H]1C[C@@H](C)C=C2[C@H]1[C@@H](CC[C@@H]1C[C@@H](O)CC(=O)O1)[C@H](C=C2)C)C'
p3853
aa(lp3854
S'-3961'
p3855
aS'DB00678'
p3856
aS'""'
p3857
aS'losartan'
p3858
aS'CCCCc1nc(c(n1Cc1ccc(cc1)c1ccccc1c1n[nH]nn1)CO)Cl'
p3859
aa(lp3860
S'-27991'
p3861
aS'DB00035'
p3862
aS'D00291'
p3863
aS'Desmopressin'
p3864
aS'NC(=O)C[C@@H]1NC(=O)[C@H](CCC(=O)N)NC(=O)[C@H](Cc2ccccc2)NC(=O)[C@@H](NC(=O)CCSSC[C@H](NC1=O)C(=O)N1CCC[C@H]1C(=O)N[C@H](C(=O)NCC(=O)N)CCCNC(=N)N)Cc1ccc(cc1)O'
p3865
aa(lp3866
S'-1546'
p3867
aS'DB00242'
p3868
aS'D01370'
p3869
aS'Cladribine'
p3870
aS'OC[C@H]1O[C@H](C[C@@H]1O)n1cnc2c1nc(Cl)nc2N'
p3871
aa(lp3872
S'-4036'
p3873
aS'DB00939'
p3874
aS'D02341'
p3875
aS'Meclofenamic acid'
p3876
aS'OC(=O)c1ccccc1Nc1c(Cl)ccc(c1Cl)C'
p3877
aa(lp3878
S'-4030'
p3879
aS'DB00643'
p3880
aS'D00368'
p3881
aS'mebendazole'
p3882
aS'COC(=O)Nc1nc2c([nH]1)cc(cc2)C(=O)c1ccccc1'
p3883
aa(lp3884
S'-4032'
p3885
aS'DB00657'
p3886
aS'""'
p3887
aS'mecamylamine'
p3888
aS'CNC1(C)C2CCC(C1(C)C)C2'
p3889
aa(lp3890
S'-3333'
p3891
aS'DB01023'
p3892
aS'D00319'
p3893
aS'felodipine'
p3894
aS'CCOC(=O)C1=C(C)NC(=C(C1c1cccc(c1Cl)Cl)C(=O)OC)C'
p3895
aa(lp3896
S'-2162'
p3897
aS'DB00381'
p3898
aS'""'
p3899
aS'amlodipine'
p3900
aS'NCCOCC1=C(C(=O)OCC)C(C(=C(N1)C)C(=O)OC)c1ccccc1Cl'
p3901
aa(lp3902
S'-4411'
p3903
aS'DB01203'
p3904
aS'D00432'
p3905
aS'nadolol'
p3906
aS'OC(COc1cccc2c1C[C@H](O)[C@@H](C2)O)CNC(C)(C)C'
p3907
aa(lp3908
S'-4819'
p3909
aS'DB01085'
p3910
aS'D00525'
p3911
aS'pilocarpine'
p3912
aS'CC[C@@H]1C(=O)OC[C@@H]1Cc1cncn1C'
p3913
aa(lp3914
S'-5311027'
p3915
aS'DB00905'
p3916
aS'""'
p3917
aS'bimatoprost'
p3918
aS'CCNC(=O)CCC/C=C\\C[C@H]1[C@@H](O)C[C@H]([C@@H]1/C=C/[C@H](CCc1ccccc1)O)O'
p3919
aa(lp3920
S'-60843'
p3921
aS'DB00642'
p3922
aS'""'
p3923
aS'pemetrexed'
p3924
aS'OC(=O)CC[C@H](C(=O)O)NC(=O)c1ccc(cc1)CCc1c[nH]c2c1c(=O)nc([nH]2)N'
p3925
aa(lp3926
S'-5496'
p3927
aS'DB00684'
p3928
aS'D00063'
p3929
aS'tobramycin'
p3930
aS'NC[C@H]1O[C@H](O[C@@H]2[C@@H](N)C[C@H]([C@@H]([C@H]2O)O[C@H]2O[C@H](CO)[C@H]([C@@H]([C@H]2O)N)O)N)[C@@H](C[C@@H]1O)N'
p3931
aa(lp3932
S'-9034'
p3933
aS'DB00474'
p3934
aS'D04985'
p3935
aS'methohexital'
p3936
aS'CCC#CC(C1(CC=C)C(=O)NC(=O)N(C1=O)C)C'
p3937
aa(lp3938
S'-5253'
p3939
aS'DB00489'
p3940
aS'""'
p3941
aS'sotalol'
p3942
aS'CC(NCC(c1ccc(cc1)NS(=O)(=O)C)O)C'
p3943
aa(lp3944
S'-3365'
p3945
aS'DB00196'
p3946
aS'D00322'
p3947
aS'fluconazole'
p3948
aS'Fc1ccc(c(c1)F)C(Cn1cncn1)(Cn1cncn1)O'
p3949
aa(lp3950
S'-3366'
p3951
aS'DB01099'
p3952
aS'D00323'
p3953
aS'Flucytosine'
p3954
aS'Nc1c(F)cnc(=O)[nH]1'
p3955
aa(lp3956
S'-3367'
p3957
aS'DB01073'
p3958
aS'D01907'
p3959
aS'fludarabine'
p3960
aS'O[C@H]1[C@H](O)[C@H](O[C@H]1n1cnc2c1nc(F)nc2N)COP(=O)(O)O'
p3961
aa(lp3962
S'-5472'
p3963
aS'DB00208'
p3964
aS'""'
p3965
aS'ticlopidine'
p3966
aS'Clc1ccccc1CN1CCc2c(C1)ccs2'
p3967
aa(lp3968
S'-5478'
p3969
aS'DB00373'
p3970
aS'""'
p3971
aS'timolol'
p3972
aS'OC(COc1nsnc1N1CCOCC1)CNC(C)(C)C'
p3973
aa(lp3974
S'-5479'
p3975
aS'DB00911'
p3976
aS'D01426'
p3977
aS'tinidazole'
p3978
aS'CCS(=O)(=O)CCn1c(C)ncc1[N+](=O)[O-]'
p3979
aa(lp3980
S'-5282044'
p3981
aS'DB00560'
p3982
aS'D01079'
p3983
aS'tigecycline'
p3984
aS'O=C(Nc1cc(N(C)C)c2c(c1O)C(=O)C1=C(O)[C@]3([C@@H](C[C@@H]1C2)[C@H](N(C)C)C(=C(C3=O)C(=O)N)O)O)CNC(C)(C)C'
p3985
aa(lp3986
S'-5078'
p3987
aS'DB00953'
p3988
aS'D00675'
p3989
aS'rizatriptan'
p3990
aS'CN(CCc1c[nH]c2c1cc(cc2)Cn1cncn1)C'
p3991
aa(lp3992
S'-60937'
p3993
aS'DB01133'
p3994
aS'""'
p3995
aS'tiludronate'
p3996
aS'Clc1ccc(cc1)SC(P(=O)(O)O)P(=O)(O)O'
p3997
aa(lp3998
S'-5076'
p3999
aS'DB00503'
p4000
aS'D00427'
p4001
aS'ritonavir'
p4002
aS'O=C(N[C@H]([C@H](C[C@H](Cc1ccccc1)NC(=O)[C@H](C(C)C)NC(=O)N(Cc1csc(n1)C(C)C)C)O)Cc1ccccc1)OCc1cncs1'
p4003
aa(lp4004
S'-2308'
p4005
aS'DB00394'
p4006
aS'D00689'
p4007
aS'Beclometasone dipropionate'
p4008
aS'CCC(=O)O[C@@]1([C@@H](C)C[C@@H]2[C@]1(C)C[C@H](O)[C@]1([C@H]2CCC2=CC(=O)C=C[C@]12C)Cl)C(=O)COC(=O)CC'
p4009
aa(lp4010
S'-5672'
p4011
aS'DB00361'
p4012
aS'D08680'
p4013
aS'vinorelbine'
p4014
aS'CCC1=C[C@@H]2CN(C1)Cc1c3ccccc3[nH]c1[C@@](C2)(C(=O)OC)c1cc2c(cc1OC)N([C@@H]1[C@@]32CCN2[C@H]3[C@@](CC)(C=CC2)[C@H]([C@@]1(O)C(=O)OC)OC(=O)C)C'
p4015
aa(lp4016
S'-47725'
p4017
aS'DB00014'
p4018
aS'D00573'
p4019
aS'goserelin'
p4020
aS'OC[C@@H](C(=O)N[C@H](C(=O)N[C@@H](C(=O)N[C@H](C(=O)N[C@H](C(=O)N1CCC[C@H]1C(=O)NNC(=O)N)CCCN=C(N)N)CC(C)C)COC(C)(C)C)Cc1ccc(cc1)O)NC(=O)[C@H](Cc1c[nH]c2c1cccc2)NC(=O)[C@@H](NC(=O)[C@@H]1CCC(=O)N1)Cc1[nH]cnc1'
p4021
aa(lp4022
S'-10548'
p4023
aS'DB01057'
p4024
aS'D02193'
p4025
aS'echothiophate'
p4026
aS'CCOP(=O)(SCC[N+](C)(C)C)OCC'
p4027
aa(lp4028
S'-3784'
p4029
aS'DB00270'
p4030
aS'D00349'
p4031
aS'isradipine'
p4032
aS'COC(=O)C1=C(C)NC(=C(C1c1cccc2c1non2)C(=O)OC(C)C)C'
p4033
aa(lp4034
S'-3780'
p4035
aS'DB00883'
p4036
aS'D00516'
p4037
aS'isosorbide dinitrate'
p4038
aS'[O-][N+](=O)O[C@@H]1CO[C@H]2[C@@H]1OC[C@@H]2O[N+](=O)[O-]'
p4039
aa(lp4040
S'-3148'
p4041
aS'DB00757'
p4042
aS'""'
p4043
aS'dolasetron'
p4044
aS'O=C1CN2C3CC1C[C@@H]2CC(C3)OC(=O)c1c[nH]c2c1cccc2'
p4045
aa(lp4046
S'-3143'
p4047
aS'DB01248'
p4048
aS'""'
p4049
aS'docetaxel'
p4050
aS'CC(=O)O[C@@]12CO[C@@H]1C[C@@H]([C@@]1([C@@H]2[C@H](OC(=O)c2ccccc2)[C@]2(O)C[C@H](OC(=O)[C@@H]([C@H](c3ccccc3)NC(=O)OC(C)(C)C)O)C(=C(C2(C)C)[C@H](C1=O)O)C)C)O'
p4051
aa(lp4052
S'-6256'
p4053
aS'DB00432'
p4054
aS'D00391'
p4055
aS'Trifluridine'
p4056
aS'OC[C@H]1O[C@H](C[C@@H]1O)n1cc(c(=O)[nH]c1=O)C(F)(F)F'
p4057
aa(lp4058
S'-1206'
p4059
aS'DB01577'
p4060
aS'""'
p4061
aS'methamphetamine'
p4062
aS'CN[C@H](Cc1ccccc1)C'
p4063
aa(lp4064
S'-14888'
p4065
aS'DB01169'
p4066
aS'D02106'
p4067
aS'arsenic trioxide'
p4068
aS'O1[As]2O[As]1O2'
p4069
aa(lp4070
S'-2578'
p4071
aS'DB00262'
p4072
aS'D00254'
p4073
aS'Carmustine'
p4074
aS'ClCCNC(=O)N(CCCl)N=O'
p4075
aa(lp4076
S'-3559'
p4077
aS'DB00502'
p4078
aS'D00136'
p4079
aS'haloperidol'
p4080
aS'Fc1ccc(cc1)C(=O)CCCN1CCC(CC1)(O)c1ccc(cc1)Cl'
p4081
aa(lp4082
S'-191'
p4083
aS'DB00640'
p4084
aS'D00045'
p4085
aS'adenosine'
p4086
aS'OC[C@H]1O[C@H]([C@@H]([C@@H]1O)O)n1cnc2c1ncnc2N'
p4087
aa(lp4088
S'-4253'
p4089
aS'DB00295'
p4090
aS'""'
p4091
aS'morphine'
p4092
aS'O[C@H]1C=C[C@@H]2[C@@]34[C@H]1Oc1c4c(C[C@H]2N(CC3)C)ccc1O'
p4093
aa(lp4094
S'-51577'
p4095
aS'DB00491'
p4096
aS'D00625'
p4097
aS'miglitol'
p4098
aS'OCCN1C[C@H](O)[C@H]([C@@H]([C@H]1CO)O)O'
p4099
aa(lp4100
S'-1972'
p4101
aS'DB00681'
p4102
aS'D00203'
p4103
aS'amphotericin b'
p4104
aS'O[C@@H]1CC[C@@H](O)[C@H](O)C[C@H](O)C[C@]2(O)C[C@H](O)[C@H]([C@@H](O2)C[C@H](/C=C/C=C/C=C/C=C/C=C/C=C/C=C/[C@@H]([C@H]([C@H]([C@@H](OC(=O)C[C@@H](C1)O)C)C)O)C)O[C@@H]1O[C@H](C)[C@H]([C@@H]([C@@H]1O)N)O)C(=O)O'
p4105
aa(lp4106
S'-1971'
p4107
aS'DB01048'
p4108
aS'D07057'
p4109
aS'abacavir'
p4110
aS'OC[C@@H]1C=C[C@@H](C1)n1cnc2c1nc(N)nc2NC1CC1'
p4111
aa(lp4112
S'-1978'
p4113
aS'DB01193'
p4114
aS'D02338'
p4115
aS'acebutolol'
p4116
aS'CCCC(=O)Nc1ccc(c(c1)C(=O)C)OCC(CNC(C)C)O'
p4117
aa(lp4118
S'-54786'
p4119
aS'DB00374'
p4120
aS'""'
p4121
aS'treprostinil'
p4122
aS'CCCCC[C@@H](CC[C@H]1[C@H](O)C[C@H]2[C@@H]1Cc1cccc(c1C2)OCC(=O)O)O'
p4123
aa(lp4124
S'-32797'
p4125
aS'DB01013'
p4126
aS'D01272'
p4127
aS'clobetasol'
p4128
aS'ClCC(=O)[C@@]1(O)[C@@H](C)C[C@@H]2[C@]1(C)C[C@H](O)[C@]1([C@H]2CCC2=CC(=O)C=C[C@]12C)F'
p4129
aa(lp4130
S'-47472'
p4131
aS'DB00639'
p4132
aS'D00880'
p4133
aS'butoconazole'
p4134
aS'Clc1ccc(cc1)CCC(Sc1c(Cl)cccc1Cl)Cn1cncc1'
p4135
aa(lp4136
S'-2955'
p4137
aS'DB00250'
p4138
aS'D00592'
p4139
aS'dapsone'
p4140
aS'Nc1ccc(cc1)S(=O)(=O)c1ccc(cc1)N'
p4141
aa(lp4142
S'-2958'
p4143
aS'DB00694'
p4144
aS'""'
p4145
aS'daunorubicin'
p4146
aS'COc1cccc2c1C(=O)c1c(C2=O)c(O)c2c(c1O)[C@@H](O[C@H]1C[C@H](N)[C@@H]([C@@H](O1)C)O)C[C@](C2)(O)C(=O)C'
p4147
aa(lp4148
S'-2794'
p4149
aS'DB00845'
p4150
aS'D00278'
p4151
aS'clofazimine'
p4152
aS'Clc1ccc(cc1)Nc1cc2nc3ccccc3n(c2c/c/1=N\\C(C)C)c1ccc(cc1)Cl'
p4153
aa(lp4154
S'-3950'
p4155
aS'DB01206'
p4156
aS'D00363'
p4157
aS'Lomustine'
p4158
aS'ClCCN(C(=O)NC1CCCCC1)N=O'
p4159
aa(lp4160
S'-3957'
p4161
aS'DB00455'
p4162
aS'D00364'
p4163
aS'loratadine'
p4164
aS'CCOC(=O)N1CCC(=C2c3ccc(cc3CCc3c2nccc3)Cl)CC1'
p4165
aa(lp4166
S'-3954'
p4167
aS'DB00836'
p4168
aS'""'
p4169
aS'loperamide'
p4170
aS'Clc1ccc(cc1)C1(O)CCN(CC1)CCC(C(=O)N(C)C)(c1ccccc1)c1ccccc1'
p4171
aa(lp4172
S'-5362070'
p4173
aS'DB01014'
p4174
aS'""'
p4175
aS'balsalazide'
p4176
aS'OC(=O)CCNC(=O)c1ccc(cc1)/N=N/c1ccc(c(c1)C(=O)O)O'
p4177
aa(lp4178
S'-125017'
p4179
aS'DB06700'
p4180
aS'D02570'
p4181
aS'Desvenlafaxine'
p4182
aS'CN(CC(C1(O)CCCCC1)c1ccc(cc1)O)C'
p4183
aa(lp4184
S'-2474'
p4185
aS'DB00297'
p4186
aS'""'
p4187
aS'bupivacaine'
p4188
aS'CCCCN1CCCCC1C(=O)Nc1c(C)cccc1C'
p4189
aa(lp4190
S'-4513'
p4191
aS'DB00585'
p4192
aS'D00440'
p4193
aS'nizatidine'
p4194
aS'CN/C(=C\\[N+](=O)[O-])/NCCSCc1csc(n1)CN(C)C'
p4195
aa(lp4196
S'-2713'
p4197
aS'DB00878'
p4198
aS'D07668'
p4199
aS'chlorhexidine'
p4200
aS'N=C(NC(=N)Nc1ccc(cc1)Cl)NCCCCCCNC(=N)NC(=N)Nc1ccc(cc1)Cl'
p4201
aa(lp4202
S'-5314'
p4203
aS'DB00202'
p4204
aS'""'
p4205
aS'succinylcholine'
p4206
aS'O=C(OCC[N+](C)(C)C)CCC(=O)OCC[N+](C)(C)C'
p4207
aa(lp4208
S'-453'
p4209
aS'DB00742'
p4210
aS'D00062'
p4211
aS'mannitol'
p4212
aS'OC[C@H]([C@H]([C@@H]([C@@H](CO)O)O)O)O'
p4213
aa(lp4214
S'-77999'
p4215
aS'DB00412'
p4216
aS'D00596'
p4217
aS'rosiglitazone'
p4218
aS'O=C1NC(=O)C(S1)Cc1ccc(cc1)OCCN(c1ccccn1)C'
p4219
aa(lp4220
S'-2478'
p4221
aS'DB01008'
p4222
aS'D00248'
p4223
aS'busulfan'
p4224
aS'CS(=O)(=O)OCCCCOS(=O)(=O)C'
p4225
aa(lp4226
S'-2173'
p4227
aS'DB00415'
p4228
aS'D00204'
p4229
aS'ampicillin'
p4230
aS'N[C@H](c1ccccc1)C(=O)N[C@@H]1C(=O)N2[C@@H]1SC([C@@H]2C(=O)O)(C)C'
p4231
aa(lp4232
S'-2170'
p4233
aS'DB00543'
p4234
aS'D00228'
p4235
aS'amoxapine'
p4236
aS'Clc1ccc2c(c1)C(=Nc1c(O2)cccc1)N1CCNCC1'
p4237
aa(lp4238
S'-2177'
p4239
aS'DB00701'
p4240
aS'D00894'
p4241
aS'amprenavir'
p4242
aS'CC(CN(S(=O)(=O)c1ccc(cc1)N)C[C@H]([C@H](Cc1ccccc1)NC(=O)O[C@H]1CCOC1)O)C'
p4243
aa(lp4244
S'-2179'
p4245
aS'DB00276'
p4246
aS'D02321'
p4247
aS'amsacrine'
p4248
aS'COc1cc(ccc1Nc1c2ccccc2nc2c1cccc2)NS(=O)(=O)C'
p4249
aa(lp4250
S'-3222'
p4251
aS'DB00584'
p4252
aS'""'
p4253
aS'enalapril'
p4254
aS'CCOC(=O)[C@@H](N[C@H](C(=O)N1CCC[C@H]1C(=O)O)C)CCc1ccccc1'
p4255
aa(lp4256
S'-1148'
p4257
aS'DB00150'
p4258
aS'D00020'
p4259
aS'l-tryptophan'
p4260
aS'OC(=O)[C@H](Cc1c[nH]c2c1cccc2)N'
p4261
aa(lp4262
S'-5267'
p4263
aS'DB00421'
p4264
aS'D00443'
p4265
aS'spironolactone'
p4266
aS'CC(=O)S[C@@H]1CC2=CC(=O)CC[C@@]2([C@@H]2[C@@H]1[C@@H]1CC[C@]3([C@]1(CC2)C)CCC(=O)O3)C'
p4267
aa(lp4268
S'-31378'
p4269
aS'DB00687'
p4270
aS'""'
p4271
aS'fludrocortisone'
p4272
aS'OCC(=O)[C@@]1(O)CC[C@@H]2[C@]1(C)C[C@H](O)[C@]1([C@H]2CCC2=CC(=O)CC[C@]12C)F'
p4273
aa(lp4274
S'-3310'
p4275
aS'DB00773'
p4276
aS'D00125'
p4277
aS'etoposide'
p4278
aS'COc1cc(cc(c1O)OC)[C@H]1[C@H]2C(=O)OC[C@@H]2[C@@H](c2c1cc1OCOc1c2)O[C@@H]1O[C@@H]2CO[C@H](O[C@H]2[C@@H]([C@H]1O)O)C'
p4279
aa(lp4280
S'-5052'
p4281
aS'DB00206'
p4282
aS'D00197'
p4283
aS'reserpine'
p4284
aS'COc1ccc2c(c1)[nH]c1c2CCN2[C@@H]1C[C@H]1[C@@H](C2)C[C@H]([C@@H]([C@H]1C(=O)OC)OC)OC(=O)c1cc(OC)c(c(c1)OC)OC'
p4285
aa(lp4286
S'-5040'
p4287
aS'DB00877'
p4288
aS'D00753'
p4289
aS'Sirolimus'
p4290
aS'CO[C@@H]1C[C@@H](CC[C@H]1O)C[C@@H]([C@H]1OC(=O)[C@@H]2CCCCN2C(=O)C(=O)[C@]2(O)O[C@@H](CC[C@H]2C)C[C@H](OC)/C(=C/C=C/C=C/[C@H](C[C@H](C(=O)[C@@H]([C@@H](/C(=C/[C@H](C(=O)C1)C)/C)O)OC)C)C)/C)C'
p4291
aa(lp4292
S'-74989'
p4293
aS'DB01117'
p4294
aS'D00236'
p4295
aS'atovaquone'
p4296
aS'Clc1ccc(cc1)[C@@H]1CC[C@H](CC1)C1=C(O)C(=O)c2c(C1=O)cccc2'
p4297
aa(lp4298
S'-5665'
p4299
aS'DB01080'
p4300
aS'D00535'
p4301
aS'vigabatrin'
p4302
aS'NC(C=C)CCC(=O)O'
p4303
aa(lp4304
S'-2311'
p4305
aS'DB00542'
p4306
aS'""'
p4307
aS'benazepril'
p4308
aS'CCOC(=O)[C@@H](N[C@H]1CCc2c(N(C1=O)CC(=O)O)cccc2)CCc1ccccc1'
p4309
aa(lp4310
S'-2315'
p4311
aS'DB00436'
p4312
aS'D00650'
p4313
aS'Bendroflumethiazide'
p4314
aS'O=S1(=O)NC(Cc2ccccc2)Nc2c1cc(c(c2)C(F)(F)F)S(=O)(=O)N'
p4315
aa(lp4316
S'-5473385'
p4317
aS'DB00352'
p4318
aS'""'
p4319
aS'Thioguanine'
p4320
aS'Nc1nc(=S)c2c([nH]1)nc[nH]2'
p4321
aa(lp4322
S'-104803'
p4323
aS'DB01226'
p4324
aS'""'
p4325
aS'mivacurium'
p4326
aS'COc1cc2c(cc1OC)CC[N+]([C@@H]2Cc1cc(OC)c(c(c1)OC)OC)(C)CCCOC(=O)CC/C=C/CCC(=O)OCCC[N+]1(C)CCc2c([C@H]1Cc1cc(OC)c(c(c1)OC)OC)cc(c(c2)OC)OC'
p4327
aa(lp4328
S'-2405'
p4329
aS'DB00612'
p4330
aS'D02342'
p4331
aS'bisoprolol'
p4332
aS'OC(COc1ccc(cc1)COCCOC(C)C)CNC(C)C'
p4333
aa(lp4334
S'-853'
p4335
aS'DB00509'
p4336
aS'""'
p4337
aS'Dextrothyroxine'
p4338
aS'OC(=O)[C@@H](Cc1cc(I)c(c(c1)I)Oc1cc(I)c(c(c1)I)O)N'
p4339
aa(lp4340
S'-60612'
p4341
aS'DB00633'
p4342
aS'D00514'
p4343
aS'dexmedetomidine'
p4344
aS'Cc1cccc(c1C)[C@@H](c1c[nH]cn1)C'
p4345
aa(lp4346
S'-60613'
p4347
aS'DB00369'
p4348
aS'""'
p4349
aS'cidofovir'
p4350
aS'OC[C@H](Cn1ccc(nc1=O)N)OCP(=O)(O)O'
p4351
aa(lp4352
S'-504578'
p4353
aS'DB00994'
p4354
aS'""'
p4355
aS'neomycin'
p4356
aS'OC[C@H]1O[C@H]([C@@H]([C@@H]1O[C@H]1O[C@@H](CN)[C@H]([C@@H]([C@H]1N)O)O)O)O[C@@H]1[C@@H](O)[C@H](N)C[C@@H]([C@H]1O[C@H]1O[C@H](CN)[C@H]([C@@H]([C@H]1N)O)O)N'
p4357
aa(lp4358
S'-5487301'
p4359
aS'DB01079'
p4360
aS''
aS'Tegaserod'
p4361
aS'CCCCC/N=C(/NN/C=C/1\\C=Nc2c1cc(CO)cc2)\\N'
p4362
aa(lp4363
S'-3062316'
p4364
aS'DB01254'
p4365
aS'D03658'
p4366
aS'dasatinib'
p4367
aS'OCCN1CCN(CC1)c1cc(nc(n1)C)Nc1ncc(s1)C(=O)Nc1c(C)cccc1Cl'
p4368
aa(lp4369
S'-298'
p4370
aS'DB00446'
p4371
aS'D00104'
p4372
aS'chloramphenicol'
p4373
aS'OC[C@H]([C@@H](c1ccc(cc1)[N+](=O)[O-])O)NC(=O)C(Cl)Cl'
p4374
aa(lp4375
S'-3040'
p4376
aS'DB00485'
p4377
aS'D02348'
p4378
aS'dicloxacillin'
p4379
aS'OC(=O)[C@@H]1N2C(=O)[C@H]([C@H]2SC1(C)C)NC(=O)c1c(C)onc1c1c(Cl)cccc1Cl'
p4380
aa(lp4381
S'-3043'
p4382
aS'DB00900'
p4383
aS'D00296'
p4384
aS'didanosine'
p4385
aS'OC[C@@H]1CC[C@@H](O1)n1cnc2c1[nH]cnc2=O'
p4386
aa(lp4387
S'-3042'
p4388
aS'DB00804'
p4389
aS'""'
p4390
aS'dicyclomine'
p4391
aS'CCN(CCOC(=O)C1(CCCCC1)C1CCCCC1)CC'
p4392
aa(lp4393
S'-2541'
p4394
aS'DB00796'
p4395
aS'D00626'
p4396
aS'candesartan'
p4397
aS'CCOc1nc2c(n1Cc1ccc(cc1)c1ccccc1c1n[nH]nn1)c(ccc2)C(=O)O'
p4398
aa(lp4399
S'-83786'
p4400
aS'DB00437'
p4401
aS'D00224'
p4402
aS'allopurinol'
p4403
aS'O=c1ncnc2c1c[nH][nH]2'
p4404
aa(lp4405
S'-2895'
p4406
aS'DB00924'
p4407
aS'""'
p4408
aS'cyclobenzaprine'
p4409
aS'CN(CC/C=C/1\\c2ccccc2C=Cc2c1cccc2)C'
p4410
aa(lp4411
S'-5493444'
p4412
aS'DB01258'
p4413
aS'D03208'
p4414
aS'aliskiren'
p4415
aS'COCCCOc1cc(ccc1OC)C[C@H](C(C)C)C[C@@H]([C@H](C[C@H](C(=O)NCC(C(=O)N)(C)C)C(C)C)O)N'
p4416
aa(lp4417
S'-4727'
p4418
aS'DB00859'
p4419
aS'D00496'
p4420
aS'Penicillamine'
p4421
aS'NC(C(S)(C)C)C(=O)O'
p4422
aa(lp4423
S'-5362420'
p4424
aS'DB00460'
p4425
aS'D01162'
p4426
aS'verteporfin'
p4427
aS'COC(=O)CCc1c2/C=C/3\\N=C(C(=C3CCC(=O)O)C)/C=c/3\\[nH]/c(=C\\C4=N/C(=C\\c(c1C)[nH]2)/[C@]1(C)[C@H](C(=O)OC)C(=CC=C41)C(=O)OC)/c(c3C=C)C'
p4428
aa(lp4429
S'-27661'
p4430
aS'DB01020'
p4431
aS'D00630'
p4432
aS'Isosorbide Mononitrate'
p4433
aS'[O-][N+](=O)O[C@@H]1CO[C@H]2[C@@H]1OC[C@@H]2O'
p4434
aa(lp4435
S'-450'
p4436
aS'DB00783'
p4437
aS'D00105'
p4438
aS'estradiol'
p4439
aS'Oc1ccc2c(c1)CC[C@@H]1[C@@H]2CC[C@]2([C@H]1CC[C@@H]2O)C'
p4440
aa(lp4441
S'-681'
p4442
aS'DB00988'
p4443
aS'""'
p4444
aS'dopamine'
p4445
aS'NCCc1ccc(c(c1)O)O'
p4446
aa(lp4447
S'-2802'
p4448
aS'DB01068'
p4449
aS'D00280'
p4450
aS'clonazepam'
p4451
aS'O=C1CN=C(c2c(N1)ccc(c2)[N+](=O)[O-])c1ccccc1Cl'
p4452
aa(lp4453
S'-2800'
p4454
aS'DB00882'
p4455
aS'D00962'
p4456
aS'Clomifene'
p4457
aS'CCN(CCOc1ccc(cc1)/C(=C(\\c1ccccc1)/Cl)/c1ccccc1)CC'
p4458
aa(lp4459
S'-3948'
p4460
aS'DB00978'
p4461
aS'D02318'
p4462
aS'lomefloxacin'
p4463
aS'CCn1cc(C(=O)O)c(=O)c2c1c(F)c(N1CCNC(C1)C)c(c2)F'
p4464
aa(lp4465
S'-4425'
p4466
aS'DB01183'
p4467
aS'""'
p4468
aS'naloxone'
p4469
aS'C=CCN1CC[C@@]23[C@@]4([C@H]1Cc1c3c(O[C@H]2C(=O)CC4)c(cc1)O)O'
p4470
aa.